
/scratch/hefegran/results/xrun_results/default/corev_rand_jump_stress_test/0/test_program/corev_rand_jump_stress_test_0.elf:     file format elf32-littleriscv


Disassembly of section .mtvec_handler:

00000000 <mtvec_handler>:

.align           8
.section .mtvec_handler, "ax"
mtvec_handler:    
                  .option norvc;
                  jal x0, mmode_exception_handler
   0:	1000906f          	jal	x0,9100 <mmode_exception_handler>
                  jal x0,  mmode_intr_vector_1
   4:	4300806f          	jal	x0,8434 <mmode_intr_vector_1>
                  jal x0,  mmode_intr_vector_2
   8:	4920806f          	jal	x0,849a <mmode_intr_vector_2>
                  jal x0,  mmode_intr_vector_3
   c:	4f40806f          	jal	x0,8500 <mmode_intr_vector_3>
                  jal x0,  mmode_intr_vector_4
  10:	5560806f          	jal	x0,8566 <mmode_intr_vector_4>
                  jal x0,  mmode_intr_vector_5
  14:	5b80806f          	jal	x0,85cc <mmode_intr_vector_5>
                  jal x0,  mmode_intr_vector_6
  18:	61a0806f          	jal	x0,8632 <mmode_intr_vector_6>
                  jal x0,  mmode_intr_vector_7
  1c:	67c0806f          	jal	x0,8698 <mmode_intr_vector_7>
                  jal x0,  mmode_intr_vector_8
  20:	6de0806f          	jal	x0,86fe <mmode_intr_vector_8>
                  jal x0,  mmode_intr_vector_9
  24:	7400806f          	jal	x0,8764 <mmode_intr_vector_9>
                  jal x0,  mmode_intr_vector_10
  28:	7a20806f          	jal	x0,87ca <mmode_intr_vector_10>
                  jal x0,  mmode_intr_vector_11
  2c:	0050806f          	jal	x0,8830 <mmode_intr_vector_11>
                  jal x0,  mmode_intr_vector_12
  30:	0670806f          	jal	x0,8896 <mmode_intr_vector_12>
                  jal x0,  mmode_intr_vector_13
  34:	0c90806f          	jal	x0,88fc <mmode_intr_vector_13>
                  jal x0,  mmode_intr_vector_14
  38:	12b0806f          	jal	x0,8962 <mmode_intr_vector_14>
                  jal x0, nmi_handler
  3c:	6340906f          	jal	x0,9670 <nmi_handler>
                  jal x0,  mmode_intr_vector_16
  40:	1ef0806f          	jal	x0,8a2e <mmode_intr_vector_16>
                  jal x0,  mmode_intr_vector_17
  44:	2510806f          	jal	x0,8a94 <mmode_intr_vector_17>
                  jal x0,  mmode_intr_vector_18
  48:	2b30806f          	jal	x0,8afa <mmode_intr_vector_18>
                  jal x0,  mmode_intr_vector_19
  4c:	3150806f          	jal	x0,8b60 <mmode_intr_vector_19>
                  jal x0,  mmode_intr_vector_20
  50:	3770806f          	jal	x0,8bc6 <mmode_intr_vector_20>
                  jal x0,  mmode_intr_vector_21
  54:	3d90806f          	jal	x0,8c2c <mmode_intr_vector_21>
                  jal x0,  mmode_intr_vector_22
  58:	43b0806f          	jal	x0,8c92 <mmode_intr_vector_22>
                  jal x0,  mmode_intr_vector_23
  5c:	49d0806f          	jal	x0,8cf8 <mmode_intr_vector_23>
                  jal x0,  mmode_intr_vector_24
  60:	4ff0806f          	jal	x0,8d5e <mmode_intr_vector_24>
                  jal x0,  mmode_intr_vector_25
  64:	5610806f          	jal	x0,8dc4 <mmode_intr_vector_25>
                  jal x0,  mmode_intr_vector_26
  68:	5c30806f          	jal	x0,8e2a <mmode_intr_vector_26>
                  jal x0,  mmode_intr_vector_27
  6c:	6230806f          	jal	x0,8e8e <mmode_intr_vector_27>
                  jal x0,  mmode_intr_vector_28
  70:	6830806f          	jal	x0,8ef2 <mmode_intr_vector_28>
                  jal x0,  mmode_intr_vector_29
  74:	6e30806f          	jal	x0,8f56 <mmode_intr_vector_29>
                  jal x0,  mmode_intr_vector_30
  78:	7430806f          	jal	x0,8fba <mmode_intr_vector_30>
                  jal x0,  mmode_intr_vector_31
  7c:	7a30806f          	jal	x0,901e <mmode_intr_vector_31>

Disassembly of section .init:

00000080 <_start>:
    j _start_main
  80:	0800006f          	jal	x0,100 <_start_main>

Disassembly of section .text:

00000100 <_start_main>:
                  li x29, 0x40001104
     100:	40001eb7          	lui	x29,0x40001
     104:	104e8e93          	addi	x29,x29,260 # 40001104 <debug_exception+0x25ef0104>
                  csrw 0x301, x29
     108:	301e9073          	csrrw	x0,misa,x29

0000010c <kernel_sp>:
                  la x26, kernel_stack_end
     10c:	00032d17          	auipc	x26,0x32
     110:	df8d0d13          	addi	x26,x26,-520 # 31f04 <kernel_stack_end>

00000114 <trap_vec_init>:
                  la x29, __vector_start
     114:	00000e93          	addi	x29,x0,0
                  ori x29, x29, 1
     118:	001eee93          	ori	x29,x29,1
                  csrw 0x305, x29 # MTVEC
     11c:	305e9073          	csrrw	x0,mtvec,x29

00000120 <mepc_setup>:
                  la x29, init
     120:	00000e97          	auipc	x29,0x0
     124:	022e8e93          	addi	x29,x29,34 # 142 <init>
                  csrw mepc, x29
     128:	341e9073          	csrrw	x0,mepc,x29

0000012c <custom_csr_setup>:
                  nop
     12c:	0001                	c.addi	x0,0

0000012e <init_machine_mode>:
                  li x29, 0x1800
     12e:	6e89                	c.lui	x29,0x2
     130:	800e8e93          	addi	x29,x29,-2048 # 1800 <sub_3_7+0x12e>
                  csrw 0x300, x29 # MSTATUS
     134:	300e9073          	csrrw	x0,mstatus,x29
                  li x29, 0x0
     138:	4e81                	c.li	x29,0
                  csrw 0x304, x29 # MIE
     13a:	304e9073          	csrrw	x0,mie,x29
                  mret
     13e:	30200073          	mret

00000142 <init>:
                  li x0, 0x80000000
     142:	80000037          	lui	x0,0x80000
     146:	0001                	c.addi	x0,0
                  li x1, 0x8
     148:	40a1                	c.li	x1,8
                  li x3, 0xffd6ad5f
     14a:	ffd6b1b7          	lui	x3,0xffd6b
     14e:	d5f18193          	addi	x3,x3,-673 # ffd6ad5f <debug_exception+0xe5c59d5f>
                  li x4, 0xf29daebb
     152:	f29db237          	lui	x4,0xf29db
     156:	ebb20213          	addi	x4,x4,-325 # f29daebb <debug_exception+0xd88c9ebb>
                  li x5, 0xf
     15a:	42bd                	c.li	x5,15
                  li x6, 0x80000000
     15c:	80000337          	lui	x6,0x80000
                  li x7, 0x2a6f757c
     160:	2a6f73b7          	lui	x7,0x2a6f7
     164:	57c38393          	addi	x7,x7,1404 # 2a6f757c <debug_exception+0x105e657c>
                  li x8, 0x1
     168:	4405                	c.li	x8,1
                  li x9, 0xfedeaabb
     16a:	fedeb4b7          	lui	x9,0xfedeb
     16e:	abb48493          	addi	x9,x9,-1349 # fedeaabb <debug_exception+0xe4cd9abb>
                  li x10, 0xf68a9ecc
     172:	f68aa537          	lui	x10,0xf68aa
     176:	ecc50513          	addi	x10,x10,-308 # f68a9ecc <debug_exception+0xdc798ecc>
                  li x11, 0x80000000
     17a:	800005b7          	lui	x11,0x80000
                  li x12, 0xfd55df2e
     17e:	fd55e637          	lui	x12,0xfd55e
     182:	f2e60613          	addi	x12,x12,-210 # fd55df2e <debug_exception+0xe344cf2e>
                  li x13, 0x80000000
     186:	800006b7          	lui	x13,0x80000
                  li x14, 0x80000000
     18a:	80000737          	lui	x14,0x80000
                  li x15, 0x80000000
     18e:	800007b7          	lui	x15,0x80000
                  li x16, 0x80000000
     192:	80000837          	lui	x16,0x80000
                  li x17, 0xf
     196:	48bd                	c.li	x17,15
                  li x18, 0xbb85297f
     198:	bb853937          	lui	x18,0xbb853
     19c:	97f90913          	addi	x18,x18,-1665 # bb85297f <debug_exception+0xa174197f>
                  li x19, 0x80000000
     1a0:	800009b7          	lui	x19,0x80000
                  li x20, 0x92ccd8c0
     1a4:	92ccea37          	lui	x20,0x92cce
     1a8:	8c0a0a13          	addi	x20,x20,-1856 # 92ccd8c0 <debug_exception+0x78bbc8c0>
                  li x21, 0x0
     1ac:	4a81                	c.li	x21,0
                  li x22, 0xf807f3b8
     1ae:	f807fb37          	lui	x22,0xf807f
     1b2:	3b8b0b13          	addi	x22,x22,952 # f807f3b8 <debug_exception+0xddf6e3b8>
                  li x23, 0x6f31c895
     1b6:	6f31dbb7          	lui	x23,0x6f31d
     1ba:	895b8b93          	addi	x23,x23,-1899 # 6f31c895 <debug_exception+0x5520b895>
                  li x24, 0x80000000
     1be:	80000c37          	lui	x24,0x80000
                  li x25, 0xfa52e28e
     1c2:	fa52ecb7          	lui	x25,0xfa52e
     1c6:	28ec8c93          	addi	x25,x25,654 # fa52e28e <debug_exception+0xe041d28e>
                  li x27, 0x0
     1ca:	4d81                	c.li	x27,0
                  li x28, 0xf1f99277
     1cc:	f1f99e37          	lui	x28,0xf1f99
     1d0:	277e0e13          	addi	x28,x28,631 # f1f99277 <debug_exception+0xd7e88277>
                  li x29, 0x80000000
     1d4:	80000eb7          	lui	x29,0x80000
                  li x30, 0x1ae0a5
     1d8:	001aef37          	lui	x30,0x1ae
     1dc:	0a5f0f13          	addi	x30,x30,165 # 1ae0a5 <__heap_start+0x17c195>
                  li x31, 0x43b7e976
     1e0:	43b7ffb7          	lui	x31,0x43b7f
     1e4:	976f8f93          	addi	x31,x31,-1674 # 43b7e976 <debug_exception+0x29a6d976>
                  la x2, user_stack_end
     1e8:	00024117          	auipc	x2,0x24
     1ec:	25c10113          	addi	x2,x2,604 # 24444 <user_stack_end>

000001f0 <main>:
main:             la           t3, sub_2
     1f0:	00007e17          	auipc	x28,0x7
     1f4:	89ce0e13          	addi	x28,x28,-1892 # 6a8c <sub_2>
                  sext.h       ra, t6
     1f8:	605f9093          	sext.h	x1,x31
                  ori          s9, s0, 1876
     1fc:	75446c93          	ori	x25,x8,1876
                  csrrci       t2, 0x340, 0
     200:	340073f3          	csrrci	x7,mscratch,0
                  auipc        t0, 624500
     204:	98774297          	auipc	x5,0x98774
                  binv         s3, t1, a2
     208:	68c319b3          	binv	x19,x6,x12
                  c.zext.b     s0
     20c:	9c61                	c.zext.b	x8
                  sext.b       s4, t1
     20e:	60431a13          	sext.b	x20,x6
                  addi         t3, t3, -299
     212:	ed5e0e13          	addi	x28,x28,-299
                  add          s1, sp, t4
     216:	01d104b3          	add	x9,x2,x29

0000021a <main_j2>:
main_j2:          jalr         ra, t3, 299 #jump main -> sub_2
     21a:	12be00e7          	jalr	x1,299(x28)
                  la           s0, sub_3
     21e:	00001417          	auipc	x8,0x1
     222:	20e40413          	addi	x8,x8,526 # 142c <sub_3>
                  srli         a0, a7, 0
     226:	0008d513          	srli	x10,x17,0x0
                  addi         s0, s0, 317
     22a:	13d40413          	addi	x8,x8,317
                  csrrci       a6, 0x340, 9
     22e:	3404f873          	csrrci	x16,mscratch,9
                  c.sext.h     a5
     232:	9fed                	c.sext.h	x15
                  beq          s11, gp, main_j3 #branch to jump instr
     234:	003d8c63          	beq	x27,x3,24c <main_j3>
                  c.sext.h     a1
     238:	9ded                	c.sext.h	x11
                  mul          t6, tp, s3
     23a:	03320fb3          	mul	x31,x4,x19
                  srai         s11, t4, 18
     23e:	412edd93          	srai	x27,x29,0x12
                  clz          ra, s10
     242:	600d1093          	clz	x1,x26
                  c.mv         a3, s10
     246:	86ea                	c.mv	x13,x26
                  andi         t0, s5, 1597
     248:	63daf293          	andi	x5,x21,1597

0000024c <main_j3>:
main_j3:          jalr         ra, s0, -317 #jump main -> sub_3
     24c:	ec3400e7          	jalr	x1,-317(x8)

00000250 <main_1>:
main_1:           jal          ra, 0f
     250:	004000ef          	jal	x1,254 <main_1+0x4>
0:                jal          s7, 3f
     254:	00a00bef          	jal	x23,25e <main_1+0xe>
1:                jal          s4, 15f
     258:	02800a6f          	jal	x20,280 <main_1+0x30>
2:                c.jal        11f
     25c:	2831                	c.jal	278 <main_1+0x28>
3:                jal          t1, 10f
     25e:	0160036f          	jal	x6,274 <main_1+0x24>
4:                c.j          18f
     262:	a01d                	c.j	288 <main_1+0x38>
5:                jal          ra, 13f
     264:	018000ef          	jal	x1,27c <main_1+0x2c>
6:                c.j          5b
     268:	bff5                	c.j	264 <main_1+0x14>
7:                jal          ra, 4b
     26a:	ff9ff0ef          	jal	x1,262 <main_1+0x12>
8:                c.j          19f
     26e:	a839                	c.j	28c <main_1+0x3c>
9:                jal          ra, 7b
     270:	ffbff0ef          	jal	x1,26a <main_1+0x1a>
10:               jal          t5, 1b
     274:	fe5fff6f          	jal	x30,258 <main_1+0x8>
11:               c.jal        20f
     278:	2819                	c.jal	28e <main_1+0x3e>
12:               c.jal        17f
     27a:	2029                	c.jal	284 <main_1+0x34>
13:               c.jal        14f
     27c:	2009                	c.jal	27e <main_1+0x2e>
14:               c.jal        16f
     27e:	2011                	c.jal	282 <main_1+0x32>
15:               c.jal        12b
     280:	3fed                	c.jal	27a <main_1+0x2a>
16:               c.jal        9b
     282:	37fd                	c.jal	270 <main_1+0x20>
17:               jal          ra, 8b
     284:	febff0ef          	jal	x1,26e <main_1+0x1e>
18:               jal          ra, 2b
     288:	fd5ff0ef          	jal	x1,25c <main_1+0xc>
19:               c.jal        6b
     28c:	3ff1                	c.jal	268 <main_1+0x18>
20:               lui          s0, 276078
     28e:	4366e437          	lui	x8,0x4366e
                  max          s5, s2, s9 #start corev_zcmp_pushpop_base_stream_0
     292:	0b996ab3          	max	x21,x18,x25
                  xnor         t3, t4, gp
     296:	403ece33          	xnor	x28,x29,x3
                  clz          s4, s8
     29a:	600c1a13          	clz	x20,x24
                  sh3add       t0, s9, s9
     29e:	219ce2b3          	sh3add	x5,x25,x25
                  sh2add       s2, s9, sp
     2a2:	202cc933          	sh2add	x18,x25,x2
                  sext.h       s9, s5
     2a6:	605a9c93          	sext.h	x25,x21
                  c.zext.h     s0
     2aa:	9c69                	c.zext.h	x8
                  rem          a4, s5, a1
     2ac:	02bae733          	rem	x14,x21,x11
                  remu         a4, t2, t1
     2b0:	0263f733          	remu	x14,x7,x6
                  minu         s3, t5, s8
     2b4:	0b8f59b3          	minu	x19,x30,x24
                  ror          s11, t3, t2
     2b8:	607e5db3          	ror	x27,x28,x7
                  ori          t6, a7, 571
     2bc:	23b8ef93          	ori	x31,x17,571
                  sltiu        gp, s3, -249
     2c0:	f079b193          	sltiu	x3,x19,-249
                  c.addi       a7, -1
     2c4:	18fd                	c.addi	x17,-1
                  c.sext.h     a1
     2c6:	9ded                	c.sext.h	x11
                  bseti        s1, a4, 22
     2c8:	29671493          	bseti	x9,x14,0x16
                  sext.b       t2, sp
     2cc:	60411393          	sext.b	x7,x2
                  cm.push      {ra, s0}, -64 #start zcmp push pop instr sequence
     2d0:	b85e                	cm.push	{x1,x8},-64
                  c.xor        a5, a0
     2d2:	8fa9                	c.xor	x15,x10
                  addi         gp, a1, -1908
     2d4:	88c58193          	addi	x3,x11,-1908 # 7ffff88c <debug_exception+0x65eee88c>
                  c.addi       s0, 5
     2d8:	0415                	c.addi	x8,5 # 4366e005 <debug_exception+0x2955d005>
                  sub          a6, sp, t0
     2da:	40510833          	sub	x16,x2,x5
                  and          t3, a4, s9
     2de:	01977e33          	and	x28,x14,x25
                  rori         t3, s4, 14
     2e2:	60ea5e13          	rori	x28,x20,0xe
                  lui          s9, 662784
     2e6:	a1d00cb7          	lui	x25,0xa1d00
                  addi         s0, t0, -553
     2ea:	dd728413          	addi	x8,x5,-553 # 98773fdb <debug_exception+0x7e662fdb>
                  sll          s5, t6, tp
     2ee:	004f9ab3          	sll	x21,x31,x4
                  bclri        zero, zero, 3
     2f2:	48301013          	bclri	x0,x0,0x3
                  c.mv         s3, sp
     2f6:	898a                	c.mv	x19,x2
                  c.li         s4, -1
     2f8:	5a7d                	c.li	x20,-1
                  ctz          s4, ra
     2fa:	60109a13          	ctz	x20,x1
                  ror          s9, a0, zero
     2fe:	60055cb3          	ror	x25,x10,x0
                  rev8         s9, a3
     302:	6986dc93          	rev8	x25,x13
                  maxu         a5, a1, t3
     306:	0bc5f7b3          	maxu	x15,x11,x28
                  orc.b        t1, s5
     30a:	287ad313          	orc.b	x6,x21
                  maxu         s4, a2, s0
     30e:	0a867a33          	maxu	x20,x12,x8
                  csrrci       a7, 0x340, 13
     312:	3406f8f3          	csrrci	x17,mscratch,13
                  binvi        t6, s1, 18
     316:	69249f93          	binvi	x31,x9,0x12
                  cm.pop       {ra, s0}, 64 #end corev_zcmp_pushpop_base_stream_0
     31a:	ba5e                	cm.pop	{x1,x8},64
                  xori         t4, s9, -742
     31c:	d1acce93          	xori	x29,x25,-742
                  csrrs        s0, 0x340, zero
     320:	34002473          	csrrs	x8,mscratch,x0
                  c.add        s3, a0
     324:	99aa                	c.add	x19,x10
                  mulhsu       a6, a5, s1
     326:	0297a833          	mulhsu	x16,x15,x9
                  xor          a7, a1, t0
     32a:	0055c8b3          	xor	x17,x11,x5
                  zext.h       a0, s0
     32e:	08044533          	zext.h	x10,x8
                  lui          a0, 542402
     332:	846c2537          	lui	x10,0x846c2
                  or           s2, t2, t3
     336:	01c3e933          	or	x18,x7,x28
                  bne          tp, s6, 25f
     33a:	03621b63          	bne	x4,x22,370 <main_1+0x120>
                  c.li         a6, -1
     33e:	587d                	c.li	x16,-1
                  slt          s2, s5, a4
     340:	00eaa933          	slt	x18,x21,x14
                  xnor         t0, t3, s0
     344:	408e42b3          	xnor	x5,x28,x8
                  xnor         ra, s0, a4
     348:	40e440b3          	xnor	x1,x8,x14
                  srai         t0, t6, 7
     34c:	407fd293          	srai	x5,x31,0x7
                  bexti        t4, ra, 1
     350:	4810de93          	bexti	x29,x1,0x1
                  c.sext.b     a5
     354:	9fe5                	c.sext.b	x15
                  slli         a4, ra, 1
     356:	00109713          	slli	x14,x1,0x1
                  c.lui        a5, 25
     35a:	67e5                	c.lui	x15,0x19
                  c.and        a1, a1
     35c:	8ded                	c.and	x11,x11
                  c.zext.h     a4
     35e:	9f69                	c.zext.h	x14
                  mulh         s2, tp, sp
     360:	02221933          	mulh	x18,x4,x2
                  c.slli       ra, 24
     364:	00e2                	c.slli	x1,0x18
                  bgeu         s10, ra, 32f
     366:	041d7663          	bgeu	x26,x1,3b2 <main_j1+0x12>
                  c.lui        t3, 3
     36a:	6e0d                	c.lui	x28,0x3
                  bltu         a5, s4, 32f
     36c:	0547e363          	bltu	x15,x20,3b2 <main_j1+0x12>
25:               csrrsi       t3, 0x340, 0
     370:	34006e73          	csrrsi	x28,mscratch,0
                  ror          a1, gp, s0
     374:	6081d5b3          	ror	x11,x3,x8
                  andi         a1, t2, -1991
     378:	8393f593          	andi	x11,x7,-1991
                  la           t6, sub_1
     37c:	00002f97          	auipc	x31,0x2
     380:	93af8f93          	addi	x31,x31,-1734 # 1cb6 <sub_1>
                  sh3add       t3, s0, t3
     384:	21c46e33          	sh3add	x28,x8,x28
                  addi         t6, t6, -140
     388:	f74f8f93          	addi	x31,x31,-140
                  csrrci       s0, 0x340, 0
     38c:	34007473          	csrrci	x8,mscratch,0
                  slli         s6, t5, 13
     390:	00df1b13          	slli	x22,x30,0xd
                  add          a5, s4, a6
     394:	010a07b3          	add	x15,x20,x16
                  sh3add       t2, ra, t0
     398:	2050e3b3          	sh3add	x7,x1,x5
                  max          s7, s9, s9
     39c:	0b9cebb3          	max	x23,x25,x25

000003a0 <main_j1>:
main_j1:          jalr         ra, t6, 141 #jump main -> sub_1
     3a0:	08df80e7          	jalr	x1,141(x31)
                  c.zext.h     s1
     3a4:	9ce9                	c.zext.h	x9
                  c.bnez       a3, 32f
     3a6:	e691                	c.bnez	x13,3b2 <main_j1+0x12>
                  c.sext.h     a3
     3a8:	9eed                	c.sext.h	x13
                  bclri        s6, tp, 3
     3aa:	48321b13          	bclri	x22,x4,0x3
                  bge          s8, gp, 32f
     3ae:	003c5263          	bge	x24,x3,3b2 <main_j1+0x12>
32:               c.mul        s1, s0
     3b2:	9cc1                	c.mul	x9,x8
                  la x24, test_done
     3b4:	00000c17          	auipc	x24,0x0
     3b8:	00cc0c13          	addi	x24,x24,12 # 3c0 <test_done>
                  jalr x0, x24, 0
     3bc:	000c0067          	jalr	x0,0(x24)

000003c0 <test_done>:
                  csrrci x0,mstatus,0x8 # Clear MSTATUS.MIE to avoid interrupts during test_done
     3c0:	30047073          	csrrci	x0,mstatus,8
                  lui ra,print_port>>12
     3c4:	008000b7          	lui	x1,0x800
                  addi s1,zero,'\n'
     3c8:	44a9                	c.li	x9,10
                  sw s1,0(ra)
     3ca:	0090a023          	sw	x9,0(x1) # 800000 <print_port>
                  addi s1,zero,'C'
     3ce:	04300493          	addi	x9,x0,67
                  sw s1,0(ra)
     3d2:	0090a023          	sw	x9,0(x1)
                  addi s1,zero,'V'
     3d6:	05600493          	addi	x9,x0,86
                  sw s1,0(ra)
     3da:	0090a023          	sw	x9,0(x1)
                  addi s1,zero,'3'
     3de:	03300493          	addi	x9,x0,51
                  sw s1,0(ra)
     3e2:	0090a023          	sw	x9,0(x1)
                  addi s1,zero,'2'
     3e6:	03200493          	addi	x9,x0,50
                  sw s1,0(ra)
     3ea:	0090a023          	sw	x9,0(x1)
                  addi s1,zero,' '
     3ee:	02000493          	addi	x9,x0,32
                  sw s1,0(ra)
     3f2:	0090a023          	sw	x9,0(x1)
                  addi s1,zero,'D'
     3f6:	04400493          	addi	x9,x0,68
                  sw s1,0(ra)
     3fa:	0090a023          	sw	x9,0(x1)
                  addi s1,zero,'O'
     3fe:	04f00493          	addi	x9,x0,79
                  sw s1,0(ra)
     402:	0090a023          	sw	x9,0(x1)
                  addi s1,zero,'N'
     406:	04e00493          	addi	x9,x0,78
                  sw s1,0(ra)
     40a:	0090a023          	sw	x9,0(x1)
                  addi s1,zero,'E'
     40e:	04500493          	addi	x9,x0,69
                  sw s1,0(ra)
     412:	0090a023          	sw	x9,0(x1)
                  addi s1,zero,'\n'
     416:	44a9                	c.li	x9,10
                  sw s1,0(ra)
     418:	0090a023          	sw	x9,0(x1)
                  sw s1,0(ra)
     41c:	0090a023          	sw	x9,0(x1)
                  li ra, test_ret_val
     420:	008000b7          	lui	x1,0x800
     424:	0c008093          	addi	x1,x1,192 # 8000c0 <test_ret_val>
                  lw s1, test_results /* report result */
     428:	00009497          	auipc	x9,0x9
     42c:	3584a483          	lw	x9,856(x9) # 9780 <__DATA_BEGIN__>
                  sw s1,0(ra)
     430:	0090a023          	sw	x9,0(x1)
                  csrrwi x0,mie,0 /* clear mie so that final wfi never awakens */
     434:	30405073          	csrrwi	x0,mie,0
                  wfi  /* we are done */
     438:	10500073          	wfi

0000043c <sub_4>:
sub_4:            fence.i
     43c:	0000100f          	fence.i
                  orc.b        gp, s6
     440:	287b5193          	orc.b	x3,x22
                  fence.i
     444:	0000100f          	fence.i
                  c.zext.b     s0
     448:	9c61                	c.zext.b	x8
                  addi         sp, sp, -692
     44a:	d4c10113          	addi	x2,x2,-692
                  clmul        t6, a7, s9
     44e:	0b989fb3          	clmul	x31,x17,x25
                  sw           ra, 4(sp)
     452:	c206                	c.swsp	x1,4(x2)
                  sh2add       s7, t3, a4
     454:	20ee4bb3          	sh2add	x23,x28,x14
                  csrrwi       gp, 0x340, 7
     458:	3403d1f3          	csrrwi	x3,mscratch,7

0000045c <sub_4_22>:
sub_4_22:         jal          ra, 2f
     45c:	008000ef          	jal	x1,464 <sub_4_22+0x8>
0:                c.j          4f
     460:	a021                	c.j	468 <sub_4_22+0xc>
1:                c.j          16f
     462:	a00d                	c.j	484 <sub_4_22+0x28>
2:                c.jal        6f
     464:	2021                	c.jal	46c <sub_4_22+0x10>
3:                c.j          9f
     466:	a039                	c.j	474 <sub_4_22+0x18>
4:                c.jal        12f
     468:	2811                	c.jal	47c <sub_4_22+0x20>
5:                c.jal        14f
     46a:	2819                	c.jal	480 <sub_4_22+0x24>
6:                c.jal        11f
     46c:	2031                	c.jal	478 <sub_4_22+0x1c>
7:                jal          t1, 3b
     46e:	ff9ff36f          	jal	x6,466 <sub_4_22+0xa>
8:                c.jal        1b
     472:	3fc5                	c.jal	462 <sub_4_22+0x6>
9:                c.jal        0b
     474:	37f5                	c.jal	460 <sub_4_22+0x4>
10:               c.jal        13f
     476:	2021                	c.jal	47e <sub_4_22+0x22>
11:               jal          ra, 7b
     478:	ff7ff0ef          	jal	x1,46e <sub_4_22+0x12>
12:               c.j          10b
     47c:	bfed                	c.j	476 <sub_4_22+0x1a>
13:               c.j          5b
     47e:	b7f5                	c.j	46a <sub_4_22+0xe>
14:               c.jal        15f
     480:	2009                	c.jal	482 <sub_4_22+0x26>
15:               c.j          8b
     482:	bfc5                	c.j	472 <sub_4_22+0x16>
16:               bext         s3, a6, s4
     484:	494859b3          	bext	x19,x16,x20
                  add          s7, s2, s11 #start corev_zcmp_pushpop_base_stream_0
     488:	01b90bb3          	add	x23,x18,x27
                  nop
     48c:	0001                	c.addi	x0,0
                  c.mul        a2, a5
     48e:	9e5d                	c.mul	x12,x15
                  ctz          s6, t0
     490:	60129b13          	ctz	x22,x5
                  minu         zero, s2, a7
     494:	0b195033          	minu	x0,x18,x17
                  c.sub        a3, s0
     498:	8e81                	c.sub	x13,x8
                  c.li         s5, 13
     49a:	4ab5                	c.li	x21,13
                  rem          tp, a0, s4
     49c:	03456233          	rem	x4,x10,x20
                  cpop         t2, a1
     4a0:	60259393          	cpop	x7,x11
                  minu         gp, tp, s2
     4a4:	0b2251b3          	minu	x3,x4,x18
                  orn          s6, s8, t0
     4a8:	405c6b33          	orn	x22,x24,x5
                  clmulr       t3, t4, s2
     4ac:	0b2eae33          	clmulr	x28,x29,x18
                  div          t5, zero, s9
     4b0:	03904f33          	div	x30,x0,x25
                  c.mv         s6, tp
     4b4:	8b12                	c.mv	x22,x4
                  div          s1, tp, s9
     4b6:	039244b3          	div	x9,x4,x25
                  csrrci       s3, 0x340, 28
     4ba:	340e79f3          	csrrci	x19,mscratch,28
                  min          zero, t5, s7
     4be:	0b7f4033          	min	x0,x30,x23
                  csrrw        t2, 0x340, s0
     4c2:	340413f3          	csrrw	x7,mscratch,x8
                  xnor         a3, gp, s10
     4c6:	41a1c6b3          	xnor	x13,x3,x26
                  bseti        a6, a1, 24
     4ca:	29859813          	bseti	x16,x11,0x18
                  bext         a0, t0, s3
     4ce:	4932d533          	bext	x10,x5,x19
                  c.not        s0
     4d2:	9c75                	c.not	x8
                  sh2add       s1, a1, s3
     4d4:	2135c4b3          	sh2add	x9,x11,x19
                  clmul        t6, a7, s2
     4d8:	0b289fb3          	clmul	x31,x17,x18
                  andi         t6, t6, 1426
     4dc:	592fff93          	andi	x31,x31,1426
                  slli         a6, a4, 31
     4e0:	01f71813          	slli	x16,x14,0x1f
                  remu         t2, s0, s7
     4e4:	037473b3          	remu	x7,x8,x23
                  xnor         s5, t4, s11
     4e8:	41becab3          	xnor	x21,x29,x27
                  srai         s0, a0, 22
     4ec:	41655413          	srai	x8,x10,0x16
                  c.li         t6, 15
     4f0:	4fbd                	c.li	x31,15
                  c.sub        a0, a5
     4f2:	8d1d                	c.sub	x10,x15
                  cm.push      {ra, s0-s2}, -64 #start zcmp push pop instr sequence
     4f4:	b87e                	cm.push	{x1,x8-x9,x18},-64
                  slt          s1, t3, s6
     4f6:	016e24b3          	slt	x9,x28,x22
                  divu         t0, s3, t3
     4fa:	03c9d2b3          	divu	x5,x19,x28
                  sltiu        a6, t3, -541
     4fe:	de3e3813          	sltiu	x16,x28,-541
                  c.sext.b     a0
     502:	9d65                	c.sext.b	x10
                  sltiu        a1, a0, -737
     504:	d1f53593          	sltiu	x11,x10,-737
                  csrrsi       t5, 0x340, 0
     508:	34006f73          	csrrsi	x30,mscratch,0
                  auipc        a5, 911100
     50c:	de6fc797          	auipc	x15,0xde6fc
                  slti         s2, s0, 1056
     510:	42042913          	slti	x18,x8,1056
                  c.add        t4, t3
     514:	9ef2                	c.add	x29,x28
                  maxu         a3, s10, a5
     516:	0afd76b3          	maxu	x13,x26,x15
                  c.mv         a2, a6
     51a:	8642                	c.mv	x12,x16
                  mulhu        s9, t2, s7
     51c:	0373bcb3          	mulhu	x25,x7,x23
                  c.zext.h     a5
     520:	9fe9                	c.zext.h	x15
                  cm.pop       {ra, s0-s2}, 64 #end corev_zcmp_pushpop_base_stream_0
     522:	ba7e                	cm.pop	{x1,x8-x9,x18},64

00000524 <sub_4_13>:
sub_4_13:         jal          ra, 8f
     524:	01c000ef          	jal	x1,540 <sub_4_13+0x1c>
0:                c.j          14f
     528:	a025                	c.j	550 <sub_4_13+0x2c>
1:                jal          ra, 15f
     52a:	028000ef          	jal	x1,552 <sub_4_13+0x2e>
2:                c.jal        20f
     52e:	280d                	c.jal	560 <sub_4_13+0x3c>
3:                jal          ra, 9f
     530:	012000ef          	jal	x1,542 <sub_4_13+0x1e>
4:                jal          t0, 5f
     534:	004002ef          	jal	x5,538 <sub_4_13+0x14>
5:                c.jal        0b
     538:	3fc5                	c.jal	528 <sub_4_13+0x4>
6:                c.j          11f
     53a:	a039                	c.j	548 <sub_4_13+0x24>
7:                jal          tp, 19f
     53c:	0220026f          	jal	x4,55e <sub_4_13+0x3a>
8:                c.j          16f
     540:	a811                	c.j	554 <sub_4_13+0x30>
9:                c.j          6b
     542:	bfe5                	c.j	53a <sub_4_13+0x16>
10:               jal          ra, 2b
     544:	febff0ef          	jal	x1,52e <sub_4_13+0xa>
11:               c.j          10b
     548:	bff5                	c.j	544 <sub_4_13+0x20>
12:               jal          a4, 1b
     54a:	fe1ff76f          	jal	x14,52a <sub_4_13+0x6>
13:               c.j          17f
     54e:	a029                	c.j	558 <sub_4_13+0x34>
14:               c.j          3b
     550:	b7c5                	c.j	530 <sub_4_13+0xc>
15:               c.j          13b
     552:	bff5                	c.j	54e <sub_4_13+0x2a>
16:               jal          ra, 7b
     554:	fe9ff0ef          	jal	x1,53c <sub_4_13+0x18>
17:               jal          a4, 4b
     558:	fddff76f          	jal	x14,534 <sub_4_13+0x10>
18:               c.jal        12b
     55c:	37fd                	c.jal	54a <sub_4_13+0x26>
19:               c.jal        18b
     55e:	3ffd                	c.jal	55c <sub_4_13+0x38>
20:               sub          s0, s9, s10
     560:	41ac8433          	sub	x8,x25,x26

00000564 <sub_4_18>:
sub_4_18:         jal          ra, 0f
     564:	004000ef          	jal	x1,568 <sub_4_18+0x4>
0:                jal          ra, 8f
     568:	016000ef          	jal	x1,57e <sub_4_18+0x1a>
1:                c.jal        10f
     56c:	2819                	c.jal	582 <sub_4_18+0x1e>
2:                c.j          7f
     56e:	a039                	c.j	57c <sub_4_18+0x18>
3:                jal          ra, 5f
     570:	008000ef          	jal	x1,578 <sub_4_18+0x14>
4:                jal          ra, 9f
     574:	00c000ef          	jal	x1,580 <sub_4_18+0x1c>
5:                c.j          4b
     578:	bff5                	c.j	574 <sub_4_18+0x10>
6:                c.jal        1b
     57a:	3fcd                	c.jal	56c <sub_4_18+0x8>
7:                c.j          6b
     57c:	bffd                	c.j	57a <sub_4_18+0x16>
8:                c.jal        3b
     57e:	3fcd                	c.jal	570 <sub_4_18+0xc>
9:                c.jal        2b
     580:	37fd                	c.jal	56e <sub_4_18+0xa>
10:               sext.b       s4, s2
     582:	60491a13          	sext.b	x20,x18

00000586 <sub_4_16>:
sub_4_16:         jal          ra, 10f
     586:	020000ef          	jal	x1,5a6 <sub_4_16+0x20>
0:                c.j          15f
     58a:	a025                	c.j	5b2 <sub_4_16+0x2c>
1:                jal          ra, 21f
     58c:	034000ef          	jal	x1,5c0 <sub_4_16+0x3a>
2:                c.j          8f
     590:	a809                	c.j	5a2 <sub_4_16+0x1c>
3:                jal          ra, 19f
     592:	02a000ef          	jal	x1,5bc <sub_4_16+0x36>
4:                jal          ra, 20f
     596:	028000ef          	jal	x1,5be <sub_4_16+0x38>
5:                jal          t1, 17f
     59a:	01c0036f          	jal	x6,5b6 <sub_4_16+0x30>
6:                c.j          5b
     59e:	bff5                	c.j	59a <sub_4_16+0x14>
7:                c.j          22f
     5a0:	a00d                	c.j	5c2 <sub_4_16+0x3c>
8:                c.jal        6b
     5a2:	3ff5                	c.jal	59e <sub_4_16+0x18>
9:                c.jal        0b
     5a4:	37dd                	c.jal	58a <sub_4_16+0x4>
10:               c.jal        3b
     5a6:	37f5                	c.jal	592 <sub_4_16+0xc>
11:               c.j          7b
     5a8:	bfe5                	c.j	5a0 <sub_4_16+0x1a>
12:               jal          ra, 18f
     5aa:	010000ef          	jal	x1,5ba <sub_4_16+0x34>
13:               c.jal        1b
     5ae:	3ff9                	c.jal	58c <sub_4_16+0x6>
14:               c.j          12b
     5b0:	bfed                	c.j	5aa <sub_4_16+0x24>
15:               c.j          13b
     5b2:	bff5                	c.j	5ae <sub_4_16+0x28>
16:               c.j          9b
     5b4:	bfc5                	c.j	5a4 <sub_4_16+0x1e>
17:               jal          s5, 11b
     5b6:	ff3ffaef          	jal	x21,5a8 <sub_4_16+0x22>
18:               c.jal        2b
     5ba:	3fd9                	c.jal	590 <sub_4_16+0xa>
19:               c.jal        16b
     5bc:	3fe5                	c.jal	5b4 <sub_4_16+0x2e>
20:               c.jal        14b
     5be:	3fcd                	c.jal	5b0 <sub_4_16+0x2a>
21:               c.jal        4b
     5c0:	3fd9                	c.jal	596 <sub_4_16+0x10>
22:               ctz          t3, s7
     5c2:	601b9e13          	ctz	x28,x23
                  divu         t3, t0, s6 #start corev_zcmp_pushpop_base_stream_3
     5c6:	0362de33          	divu	x28,x5,x22
                  add          a6, t3, s0
     5ca:	008e0833          	add	x16,x28,x8
                  andn         t4, s0, t1
     5ce:	40647eb3          	andn	x29,x8,x6
                  and          s2, t0, t2
     5d2:	0072f933          	and	x18,x5,x7
                  bclri        a6, a6, 24
     5d6:	49881813          	bclri	x16,x16,0x18
                  nop
     5da:	0001                	c.addi	x0,0
                  c.mul        s0, a3
     5dc:	9c55                	c.mul	x8,x13
                  c.srai       s1, 23
     5de:	84dd                	c.srai	x9,0x17
                  auipc        a2, 19551
     5e0:	04c5f617          	auipc	x12,0x4c5f
                  min          s9, a7, t4
     5e4:	0bd8ccb3          	min	x25,x17,x29
                  cm.push      {ra, s0-s3}, -80 #start zcmp push pop instr sequence
     5e8:	b88e                	cm.push	{x1,x8-x9,x18-x19},-80
                  c.xor        a2, a4
     5ea:	8e39                	c.xor	x12,x14
                  auipc        t3, 593585
     5ec:	90eb1e17          	auipc	x28,0x90eb1
                  c.nop
     5f0:	0001                	c.addi	x0,0
                  xor          a5, a2, s4
     5f2:	014647b3          	xor	x15,x12,x20
                  csrrc        s7, 0x340, zero
     5f6:	34003bf3          	csrrc	x23,mscratch,x0
                  clz          a3, s1
     5fa:	60049693          	clz	x13,x9
                  nop
     5fe:	0001                	c.addi	x0,0
                  c.sext.b     s1
     600:	9ce5                	c.sext.b	x9
                  orc.b        s6, s7
     602:	287bdb13          	orc.b	x22,x23
                  c.not        a2
     606:	9e75                	c.not	x12
                  fence.i
     608:	0000100f          	fence.i
                  csrrc        gp, 0x340, s5
     60c:	340ab1f3          	csrrc	x3,mscratch,x21
                  c.zext.h     a3
     610:	9ee9                	c.zext.h	x13
                  csrrwi       a3, 0x340, 15
     612:	3407d6f3          	csrrwi	x13,mscratch,15
                  cm.pop       {ra, s0-s3}, 80 #end corev_zcmp_pushpop_base_stream_3
     616:	ba8e                	cm.pop	{x1,x8-x9,x18-x19},80
                  nop #start corev_zcmp_pushpop_base_stream_9
     618:	0001                	c.addi	x0,0
                  c.mul        s1, a1
     61a:	9ccd                	c.mul	x9,x11
                  c.li         a6, 14
     61c:	4839                	c.li	x16,14
                  cpop         a3, s11
     61e:	602d9693          	cpop	x13,x27
                  sub          a6, sp, a3
     622:	40d10833          	sub	x16,x2,x13
                  csrrsi       s9, 0x340, 0
     626:	34006cf3          	csrrsi	x25,mscratch,0
                  bclri        a0, s2, 22
     62a:	49691513          	bclri	x10,x18,0x16
                  bclr         a1, t6, ra
     62e:	481f95b3          	bclr	x11,x31,x1
                  and          s9, s4, a4
     632:	00ea7cb3          	and	x25,x20,x14
                  rol          s0, gp, s5
     636:	61519433          	rol	x8,x3,x21
                  slti         t1, sp, -1689
     63a:	96712313          	slti	x6,x2,-1689
                  nop
     63e:	0001                	c.addi	x0,0
                  max          t1, s7, t0
     640:	0a5be333          	max	x6,x23,x5
                  csrrw        t4, 0x340, s7
     644:	340b9ef3          	csrrw	x29,mscratch,x23
                  min          t1, zero, t5
     648:	0be04333          	min	x6,x0,x30
                  c.slli       t1, 7
     64c:	031e                	c.slli	x6,0x7
                  c.add        s5, s1
     64e:	9aa6                	c.add	x21,x9
                  rem          s7, gp, tp
     650:	0241ebb3          	rem	x23,x3,x4
                  andn         s4, s0, s5
     654:	41547a33          	andn	x20,x8,x21
                  maxu         a2, t5, a0
     658:	0aaf7633          	maxu	x12,x30,x10
                  sh1add       t4, s11, gp
     65c:	203daeb3          	sh1add	x29,x27,x3
                  cm.push      {ra, s0-s1}, -64 #start zcmp push pop instr sequence
     660:	b86e                	cm.push	{x1,x8-x9},-64
                  clz          a2, s2
     662:	60091613          	clz	x12,x18
                  rev8         a0, s11
     666:	698dd513          	rev8	x10,x27
                  andi         s1, zero, 200
     66a:	0c807493          	andi	x9,x0,200
                  rori         a1, s10, 17
     66e:	611d5593          	rori	x11,x26,0x11
                  div          a2, a6, s8
     672:	03884633          	div	x12,x16,x24
                  c.mv         t4, tp
     676:	8e92                	c.mv	x29,x4
                  csrrc        tp, 0x340, s0
     678:	34043273          	csrrc	x4,mscratch,x8
                  xnor         t3, s9, s11
     67c:	41bcce33          	xnor	x28,x25,x27
                  cm.pop       {ra, s0-s1}, 64 #end corev_zcmp_pushpop_base_stream_9
     680:	ba6e                	cm.pop	{x1,x8-x9},64
                  maxu         s1, s10, tp #start corev_zcmp_pushpop_base_stream_4
     682:	0a4d74b3          	maxu	x9,x26,x4
                  sh1add       s6, tp, s5
     686:	21522b33          	sh1add	x22,x4,x21
                  c.nop
     68a:	0001                	c.addi	x0,0
                  mul          a4, t6, sp
     68c:	022f8733          	mul	x14,x31,x2
                  div          zero, a3, a2
     690:	02c6c033          	div	x0,x13,x12
                  bclri        s4, a2, 24
     694:	49861a13          	bclri	x20,x12,0x18
                  zext.h       t2, zero
     698:	080043b3          	zext.h	x7,x0
                  clmul        t1, s3, s1
     69c:	0a999333          	clmul	x6,x19,x9
                  cm.push      {ra, s0-s1}, -64 #start zcmp push pop instr sequence
     6a0:	b86e                	cm.push	{x1,x8-x9},-64
                  mulh         a2, a4, t2
     6a2:	02771633          	mulh	x12,x14,x7
                  bclri        s7, s3, 6
     6a6:	48699b93          	bclri	x23,x19,0x6
                  fence.i
     6aa:	0000100f          	fence.i
                  orc.b        a5, s10
     6ae:	287d5793          	orc.b	x15,x26
                  c.andi       a5, -1
     6b2:	9bfd                	c.andi	x15,-1
                  zext.h       s3, ra
     6b4:	0800c9b3          	zext.h	x19,x1
                  mul          a3, s6, a6
     6b8:	030b06b3          	mul	x13,x22,x16
                  clmulr       s6, a7, a3
     6bc:	0ad8ab33          	clmulr	x22,x17,x13
                  remu         t4, t5, tp
     6c0:	024f7eb3          	remu	x29,x30,x4
                  sltiu        s1, a4, -431
     6c4:	e5173493          	sltiu	x9,x14,-431
                  rem          a2, s11, a0
     6c8:	02ade633          	rem	x12,x27,x10
                  or           t2, a6, s7
     6cc:	017863b3          	or	x7,x16,x23
                  and          a2, zero, s1
     6d0:	00907633          	and	x12,x0,x9
                  csrrsi       t4, 0x340, 0
     6d4:	34006ef3          	csrrsi	x29,mscratch,0
                  srl          ra, sp, s2
     6d8:	012150b3          	srl	x1,x2,x18
                  sext.b       t5, t1
     6dc:	60431f13          	sext.b	x30,x6
                  csrrwi       gp, 0x340, 24
     6e0:	340c51f3          	csrrwi	x3,mscratch,24
                  csrrw        s2, 0x340, a0
     6e4:	34051973          	csrrw	x18,mscratch,x10
                  clz          s7, sp
     6e8:	60011b93          	clz	x23,x2
                  clmul        s2, s9, a5
     6ec:	0afc9933          	clmul	x18,x25,x15
                  clmulh       s6, sp, s8
     6f0:	0b813b33          	clmulh	x22,x2,x24
                  sub          s2, gp, s10
     6f4:	41a18933          	sub	x18,x3,x26
                  bset         t2, t4, a0
     6f8:	28ae93b3          	bset	x7,x29,x10
                  bexti        a1, s0, 22
     6fc:	49645593          	bexti	x11,x8,0x16
                  cm.pop       {ra, s0-s1}, 64 #end corev_zcmp_pushpop_base_stream_4
     700:	ba6e                	cm.pop	{x1,x8-x9},64

00000702 <sub_4_23>:
sub_4_23:         jal          ra, 0f
     702:	004000ef          	jal	x1,706 <sub_4_23+0x4>
0:                c.jal        1f
     706:	2009                	c.jal	708 <sub_4_23+0x6>
1:                c.jal        10f
     708:	2819                	c.jal	71e <sub_4_23+0x1c>
2:                c.j          15f
     70a:	a015                	c.j	72e <sub_4_23+0x2c>
3:                c.jal        2b
     70c:	3ffd                	c.jal	70a <sub_4_23+0x8>
4:                c.jal        3b
     70e:	3ffd                	c.jal	70c <sub_4_23+0xa>
5:                c.j          12f
     710:	a811                	c.j	724 <sub_4_23+0x22>
6:                jal          t1, 13f
     712:	0160036f          	jal	x6,728 <sub_4_23+0x26>
7:                jal          ra, 8f
     716:	004000ef          	jal	x1,71a <sub_4_23+0x18>
8:                c.j          4b
     71a:	bfd5                	c.j	70e <sub_4_23+0xc>
9:                c.jal        7b
     71c:	3fed                	c.jal	716 <sub_4_23+0x14>
10:               jal          t0, 6b
     71e:	ff5ff2ef          	jal	x5,712 <sub_4_23+0x10>
11:               c.j          14f
     722:	a029                	c.j	72c <sub_4_23+0x2a>
12:               jal          t1, 11b
     724:	fffff36f          	jal	x6,722 <sub_4_23+0x20>
13:               jal          t1, 9b
     728:	ff5ff36f          	jal	x6,71c <sub_4_23+0x1a>
14:               c.j          16f
     72c:	a019                	c.j	732 <sub_4_23+0x30>
15:               jal          ra, 5b
     72e:	fe3ff0ef          	jal	x1,710 <sub_4_23+0xe>
16:               clz          s4, s2
     732:	60091a13          	clz	x20,x18
                  c.mul        a5, s1 #start corev_zcmp_pushpop_base_stream_10
     736:	9fc5                	c.mul	x15,x9
                  srli         t5, s9, 19
     738:	013cdf13          	srli	x30,x25,0x13
                  cm.push      {ra, s0}, -64 #start zcmp push pop instr sequence
     73c:	b85e                	cm.push	{x1,x8},-64
                  or           s7, a0, s1
     73e:	00956bb3          	or	x23,x10,x9
                  minu         gp, s5, a1
     742:	0abad1b3          	minu	x3,x21,x11
                  maxu         s2, a2, s4
     746:	0b467933          	maxu	x18,x12,x20
                  lui          a4, 676522
     74a:	a52aa737          	lui	x14,0xa52aa
                  c.zext.b     a2
     74e:	9e61                	c.zext.b	x12
                  bext         a1, s7, s11
     750:	49bbd5b3          	bext	x11,x23,x27
                  cpop         t5, s8
     754:	602c1f13          	cpop	x30,x24
                  xnor         a7, a6, s8
     758:	418848b3          	xnor	x17,x16,x24
                  and          s1, a1, gp
     75c:	0035f4b3          	and	x9,x11,x3
                  c.zext.h     a5
     760:	9fe9                	c.zext.h	x15
                  sh2add       t6, s3, t6
     762:	21f9cfb3          	sh2add	x31,x19,x31
                  csrrw        a7, 0x340, s9
     766:	340c98f3          	csrrw	x17,mscratch,x25
                  orc.b        t1, t1
     76a:	28735313          	orc.b	x6,x6
                  add          gp, a1, s5
     76e:	015581b3          	add	x3,x11,x21
                  sh1add       t0, t1, a2
     772:	20c322b3          	sh1add	x5,x6,x12
                  csrrwi       t3, 0x340, 27
     776:	340dde73          	csrrwi	x28,mscratch,27
                  nop
     77a:	0001                	c.addi	x0,0
                  sltiu        s1, a7, -1755
     77c:	9258b493          	sltiu	x9,x17,-1755
                  c.mv         a4, t5
     780:	877a                	c.mv	x14,x30
                  rol          s9, t0, a6
     782:	61029cb3          	rol	x25,x5,x16
                  csrrci       a6, 0x340, 30
     786:	340f7873          	csrrci	x16,mscratch,30
                  min          t1, a1, s2
     78a:	0b25c333          	min	x6,x11,x18
                  cm.pop       {ra, s0}, 64 #end corev_zcmp_pushpop_base_stream_10
     78e:	ba5e                	cm.pop	{x1,x8},64
                  c.srli       s1, 6 #start corev_zcmp_pushpop_base_stream_1
     790:	8099                	c.srli	x9,0x6
                  c.srai       a4, 27
     792:	876d                	c.srai	x14,0x1b
                  c.lui        t5, 0xfffe2
     794:	7f09                	c.lui	x30,0xfffe2
                  orc.b        s3, t6
     796:	287fd993          	orc.b	x19,x31
                  mulhu        ra, a7, s9
     79a:	0398b0b3          	mulhu	x1,x17,x25
                  c.zext.h     a4
     79e:	9f69                	c.zext.h	x14
                  rol          a4, sp, s8
     7a0:	61811733          	rol	x14,x2,x24
                  c.zext.h     a2
     7a4:	9e69                	c.zext.h	x12
                  c.li         a3, -1
     7a6:	56fd                	c.li	x13,-1
                  add          gp, t2, gp
     7a8:	919e                	c.add	x3,x7
                  maxu         a5, t2, s9
     7aa:	0b93f7b3          	maxu	x15,x7,x25
                  c.zext.b     a3
     7ae:	9ee1                	c.zext.b	x13
                  andn         a0, a0, t1
     7b0:	40657533          	andn	x10,x10,x6
                  fence
     7b4:	0ff0000f          	fence	iorw,iorw
                  sh1add       s7, gp, s7
     7b8:	2171abb3          	sh1add	x23,x3,x23
                  slli         s11, s1, 16
     7bc:	01049d93          	slli	x27,x9,0x10
                  sh3add       s3, zero, tp
     7c0:	204069b3          	sh3add	x19,x0,x4
                  andi         a2, s11, -1304
     7c4:	ae8df613          	andi	x12,x27,-1304
                  min          s3, s10, a1
     7c8:	0abd49b3          	min	x19,x26,x11
                  c.nop
     7cc:	0001                	c.addi	x0,0
                  cm.push      {ra, s0}, -64 #start zcmp push pop instr sequence
     7ce:	b85e                	cm.push	{x1,x8},-64
                  bext         a7, a4, s9
     7d0:	499758b3          	bext	x17,x14,x25
                  csrrsi       t0, 0x340, 1
     7d4:	3400e2f3          	csrrsi	x5,mscratch,1
                  zext.h       s7, a7
     7d8:	0808cbb3          	zext.h	x23,x17
                  auipc        tp, 990419
     7dc:	f1cd3217          	auipc	x4,0xf1cd3
                  bset         a2, s1, s7
     7e0:	29749633          	bset	x12,x9,x23
                  csrrsi       t6, 0x340, 0
     7e4:	34006ff3          	csrrsi	x31,mscratch,0
                  rol          a5, a1, gp
     7e8:	603597b3          	rol	x15,x11,x3
                  sext.b       s4, t0
     7ec:	60429a13          	sext.b	x20,x5
                  zext.h       s11, s5
     7f0:	080acdb3          	zext.h	x27,x21
                  rem          a1, t5, tp
     7f4:	024f65b3          	rem	x11,x30,x4
                  cm.pop       {ra, s0}, 64 #end corev_zcmp_pushpop_base_stream_1
     7f8:	ba5e                	cm.pop	{x1,x8},64

000007fa <sub_4_21>:
sub_4_21:         jal          ra, 1f
     7fa:	008000ef          	jal	x1,802 <sub_4_21+0x8>
0:                jal          t1, 4f
     7fe:	00c0036f          	jal	x6,80a <sub_4_21+0x10>
1:                jal          ra, 12f
     802:	01c000ef          	jal	x1,81e <sub_4_21+0x24>
2:                c.j          0b
     806:	bfe5                	c.j	7fe <sub_4_21+0x4>
3:                c.jal        7f
     808:	2029                	c.jal	812 <sub_4_21+0x18>
4:                c.jal        20f
     80a:	202d                	c.jal	834 <sub_4_21+0x3a>
5:                jal          s1, 15f
     80c:	01c004ef          	jal	x9,828 <sub_4_21+0x2e>
6:                c.j          17f
     810:	a839                	c.j	82e <sub_4_21+0x34>
7:                c.j          11f
     812:	a029                	c.j	81c <sub_4_21+0x22>
8:                c.jal        2b
     814:	3fcd                	c.jal	806 <sub_4_21+0xc>
9:                c.j          6b
     816:	bfed                	c.j	810 <sub_4_21+0x16>
10:               jal          t3, 18f
     818:	01800e6f          	jal	x28,830 <sub_4_21+0x36>
11:               c.jal        10b
     81c:	3ff5                	c.jal	818 <sub_4_21+0x1e>
12:               c.jal        13f
     81e:	2009                	c.jal	820 <sub_4_21+0x26>
13:               jal          ra, 19f
     820:	012000ef          	jal	x1,832 <sub_4_21+0x38>
14:               jal          a5, 9b
     824:	ff3ff7ef          	jal	x15,816 <sub_4_21+0x1c>
15:               c.jal        3b
     828:	37c5                	c.jal	808 <sub_4_21+0xe>
16:               jal          ra, 8b
     82a:	febff0ef          	jal	x1,814 <sub_4_21+0x1a>
17:               c.j          16b
     82e:	bff5                	c.j	82a <sub_4_21+0x30>
18:               c.j          14b
     830:	bfd5                	c.j	824 <sub_4_21+0x2a>
19:               c.jal        5b
     832:	3fe9                	c.jal	80c <sub_4_21+0x12>
20:               c.slli       s7, 6
     834:	0b9a                	c.slli	x23,0x6

00000836 <sub_4_14>:
sub_4_14:         jal          ra, 2f
     836:	008000ef          	jal	x1,83e <sub_4_14+0x8>
0:                c.jal        22f
     83a:	2825                	c.jal	872 <sub_4_14+0x3c>
1:                c.jal        15f
     83c:	200d                	c.jal	85e <sub_4_14+0x28>
2:                c.j          16f
     83e:	a015                	c.j	862 <sub_4_14+0x2c>
3:                c.j          6f
     840:	a021                	c.j	848 <sub_4_14+0x12>
4:                c.jal        13f
     842:	2819                	c.jal	858 <sub_4_14+0x22>
5:                jal          ra, 17f
     844:	020000ef          	jal	x1,864 <sub_4_14+0x2e>
6:                jal          ra, 4b
     848:	ffbff0ef          	jal	x1,842 <sub_4_14+0xc>
7:                c.jal        3b
     84c:	3fd5                	c.jal	840 <sub_4_14+0xa>
8:                c.jal        20f
     84e:	2005                	c.jal	86e <sub_4_14+0x38>
9:                c.j          8b
     850:	bffd                	c.j	84e <sub_4_14+0x18>
10:               c.j          9b
     852:	bffd                	c.j	850 <sub_4_14+0x1a>
11:               c.jal        23f
     854:	2005                	c.jal	874 <sub_4_14+0x3e>
12:               c.j          11b
     856:	bffd                	c.j	854 <sub_4_14+0x1e>
13:               jal          ra, 10b
     858:	ffbff0ef          	jal	x1,852 <sub_4_14+0x1c>
14:               c.jal        7b
     85c:	3fc5                	c.jal	84c <sub_4_14+0x16>
15:               jal          t3, 0b
     85e:	fddffe6f          	jal	x28,83a <sub_4_14+0x4>
16:               c.j          12b
     862:	bfd5                	c.j	856 <sub_4_14+0x20>
17:               jal          ra, 24f
     864:	014000ef          	jal	x1,878 <sub_4_14+0x42>
18:               jal          ra, 14b
     868:	ff5ff0ef          	jal	x1,85c <sub_4_14+0x26>
19:               c.jal        1b
     86c:	3fc1                	c.jal	83c <sub_4_14+0x6>
20:               c.j          5b
     86e:	bfd9                	c.j	844 <sub_4_14+0xe>
21:               c.jal        19b
     870:	3ff5                	c.jal	86c <sub_4_14+0x36>
22:               c.jal        18b
     872:	3fdd                	c.jal	868 <sub_4_14+0x32>
23:               jal          ra, 21b
     874:	ffdff0ef          	jal	x1,870 <sub_4_14+0x3a>
24:               c.addi       s4, -1
     878:	1a7d                	c.addi	x20,-1
                  bset         t2, t2, a7 #start corev_zcmp_pushpop_base_stream_7
     87a:	291393b3          	bset	x7,x7,x17
                  bclri        t4, t0, 26
     87e:	49a29e93          	bclri	x29,x5,0x1a
                  c.srli       a2, 8
     882:	8221                	c.srli	x12,0x8
                  rori         t2, a1, 26
     884:	61a5d393          	rori	x7,x11,0x1a
                  or           t3, s3, gp
     888:	0039ee33          	or	x28,x19,x3
                  cm.push      {ra, s0-s3}, -80 #start zcmp push pop instr sequence
     88c:	b88e                	cm.push	{x1,x8-x9,x18-x19},-80
                  min          t4, s8, s2
     88e:	0b2c4eb3          	min	x29,x24,x18
                  binv         s11, s9, s10
     892:	69ac9db3          	binv	x27,x25,x26
                  sh3add       s7, t0, t5
     896:	21e2ebb3          	sh3add	x23,x5,x30
                  max          s4, s8, a5
     89a:	0afc6a33          	max	x20,x24,x15
                  c.nop
     89e:	0001                	c.addi	x0,0
                  clmulr       t5, s10, t1
     8a0:	0a6d2f33          	clmulr	x30,x26,x6
                  c.and        a5, a1
     8a4:	8fed                	c.and	x15,x11
                  mulhsu       t0, gp, a6
     8a6:	0301a2b3          	mulhsu	x5,x3,x16
                  clz          a5, t4
     8aa:	600e9793          	clz	x15,x29
                  bset         t1, s1, t4
     8ae:	29d49333          	bset	x6,x9,x29
                  clmulr       s1, s2, a7
     8b2:	0b1924b3          	clmulr	x9,x18,x17
                  sext.b       s1, t5
     8b6:	604f1493          	sext.b	x9,x30
                  min          t2, s10, gp
     8ba:	0a3d43b3          	min	x7,x26,x3
                  srai         t3, s2, 13
     8be:	40d95e13          	srai	x28,x18,0xd
                  c.srai       s0, 6
     8c2:	8419                	c.srai	x8,0x6
                  c.addi       tp, 20
     8c4:	0251                	c.addi	x4,20 # f1cd37f0 <debug_exception+0xd7bc27f0>
                  slti         t2, t0, -1593
     8c6:	9c72a393          	slti	x7,x5,-1593
                  sll          t3, s5, tp
     8ca:	004a9e33          	sll	x28,x21,x4
                  sext.b       s3, a3
     8ce:	60469993          	sext.b	x19,x13
                  rori         a1, s10, 11
     8d2:	60bd5593          	rori	x11,x26,0xb
                  and          a3, s9, t2
     8d6:	007cf6b3          	and	x13,x25,x7
                  c.srai       a4, 20
     8da:	8751                	c.srai	x14,0x14
                  divu         a7, ra, a2
     8dc:	02c0d8b3          	divu	x17,x1,x12
                  c.nop
     8e0:	0001                	c.addi	x0,0
                  c.zext.b     s1
     8e2:	9ce1                	c.zext.b	x9
                  srli         s3, ra, 1
     8e4:	0010d993          	srli	x19,x1,0x1
                  mulh         s1, s2, s0
     8e8:	028914b3          	mulh	x9,x18,x8
                  cm.pop       {ra, s0-s3}, 80 #end corev_zcmp_pushpop_base_stream_7
     8ec:	ba8e                	cm.pop	{x1,x8-x9,x18-x19},80

000008ee <sub_4_15>:
sub_4_15:         jal          ra, 1f
     8ee:	006000ef          	jal	x1,8f4 <sub_4_15+0x6>
0:                c.j          6f
     8f2:	a801                	c.j	902 <sub_4_15+0x14>
1:                jal          a7, 0b
     8f4:	fffff8ef          	jal	x17,8f2 <sub_4_15+0x4>
2:                jal          t4, 12f
     8f8:	01c00eef          	jal	x29,914 <sub_4_15+0x26>
3:                c.jal        10f
     8fc:	2811                	c.jal	910 <sub_4_15+0x22>
4:                c.j          3b
     8fe:	bffd                	c.j	8fc <sub_4_15+0xe>
5:                c.jal        8f
     900:	2029                	c.jal	90a <sub_4_15+0x1c>
6:                jal          ra, 9f
     902:	00a000ef          	jal	x1,90c <sub_4_15+0x1e>
7:                jal          ra, 11f
     906:	00c000ef          	jal	x1,912 <sub_4_15+0x24>
8:                c.j          2b
     90a:	b7fd                	c.j	8f8 <sub_4_15+0xa>
9:                jal          gp, 4b
     90c:	ff3ff1ef          	jal	x3,8fe <sub_4_15+0x10>
10:               c.jal        7b
     910:	3fdd                	c.jal	906 <sub_4_15+0x18>
11:               c.jal        5b
     912:	37fd                	c.jal	900 <sub_4_15+0x12>
12:               mulhu        s5, zero, t4
     914:	03d03ab3          	mulhu	x21,x0,x29

00000918 <sub_4_19>:
sub_4_19:         jal          ra, 19f
     918:	03a000ef          	jal	x1,952 <sub_4_19+0x3a>
0:                c.j          12f
     91c:	a00d                	c.j	93e <sub_4_19+0x26>
1:                jal          a7, 10f
     91e:	01c008ef          	jal	x17,93a <sub_4_19+0x22>
2:                c.jal        9f
     922:	2811                	c.jal	936 <sub_4_19+0x1e>
3:                jal          a5, 17f
     924:	026007ef          	jal	x15,94a <sub_4_19+0x32>
4:                c.j          2b
     928:	bfed                	c.j	922 <sub_4_19+0xa>
5:                jal          ra, 0b
     92a:	ff3ff0ef          	jal	x1,91c <sub_4_19+0x4>
6:                c.j          22f
     92e:	a02d                	c.j	958 <sub_4_19+0x40>
7:                c.j          24f
     930:	a035                	c.j	95c <sub_4_19+0x44>
8:                jal          ra, 11f
     932:	00a000ef          	jal	x1,93c <sub_4_19+0x24>
9:                jal          ra, 16f
     936:	012000ef          	jal	x1,948 <sub_4_19+0x30>
10:               c.j          3b
     93a:	b7ed                	c.j	924 <sub_4_19+0xc>
11:               c.jal        5b
     93c:	37fd                	c.jal	92a <sub_4_19+0x12>
12:               c.jal        1b
     93e:	37c5                	c.jal	91e <sub_4_19+0x6>
13:               jal          t1, 21f
     940:	0160036f          	jal	x6,956 <sub_4_19+0x3e>
14:               c.jal        6b
     944:	37ed                	c.jal	92e <sub_4_19+0x16>
15:               c.jal        25f
     946:	2821                	c.jal	95e <sub_4_19+0x46>
16:               c.j          20f
     948:	a031                	c.j	954 <sub_4_19+0x3c>
17:               jal          ra, 4b
     94a:	fdfff0ef          	jal	x1,928 <sub_4_19+0x10>
18:               jal          ra, 8b
     94e:	fe5ff0ef          	jal	x1,932 <sub_4_19+0x1a>
19:               c.jal        14b
     952:	3fcd                	c.jal	944 <sub_4_19+0x2c>
20:               c.j          13b
     954:	b7f5                	c.j	940 <sub_4_19+0x28>
21:               c.jal        23f
     956:	2011                	c.jal	95a <sub_4_19+0x42>
22:               c.jal        18b
     958:	3fdd                	c.jal	94e <sub_4_19+0x36>
23:               c.j          7b
     95a:	bfd9                	c.j	930 <sub_4_19+0x18>
24:               c.j          15b
     95c:	b7ed                	c.j	946 <sub_4_19+0x2e>
25:               ori          a1, s3, 760
     95e:	2f89e593          	ori	x11,x19,760
                  bclri        t5, s1, 4 #start corev_zcmp_pushpop_base_stream_11
     962:	48449f13          	bclri	x30,x9,0x4
                  max          a4, gp, a6
     966:	0b01e733          	max	x14,x3,x16
                  sra          s11, s7, t1
     96a:	406bddb3          	sra	x27,x23,x6
                  zext.h       t5, s3
     96e:	0809cf33          	zext.h	x30,x19
                  sh1add       s1, t1, t1
     972:	206324b3          	sh1add	x9,x6,x6
                  c.mul        s1, a3
     976:	9cd5                	c.mul	x9,x13
                  c.mul        a5, a0
     978:	9fc9                	c.mul	x15,x10
                  c.nop
     97a:	0001                	c.addi	x0,0
                  c.add        a3, a3
     97c:	96b6                	c.add	x13,x13
                  binvi        s3, ra, 0
     97e:	68009993          	binvi	x19,x1,0x0
                  srl          t5, t4, t1
     982:	006edf33          	srl	x30,x29,x6
                  c.lui        a6, 0xfffe6
     986:	7819                	c.lui	x16,0xfffe6
                  zext.h       a2, ra
     988:	0800c633          	zext.h	x12,x1
                  rol          s1, s8, t6
     98c:	61fc14b3          	rol	x9,x24,x31
                  cm.push      {ra, s0-s3}, -80 #start zcmp push pop instr sequence
     990:	b88e                	cm.push	{x1,x8-x9,x18-x19},-80
                  bclri        t0, s11, 13
     992:	48dd9293          	bclri	x5,x27,0xd
                  orc.b        a4, a5
     996:	2877d713          	orc.b	x14,x15
                  c.srli       s1, 20
     99a:	80d1                	c.srli	x9,0x14
                  c.or         a3, a3
     99c:	8ed5                	c.or	x13,x13
                  srli         t4, s10, 10
     99e:	00ad5e93          	srli	x29,x26,0xa
                  add          s0, a5, s9
     9a2:	01978433          	add	x8,x15,x25
                  max          t1, a5, t6
     9a6:	0bf7e333          	max	x6,x15,x31
                  c.mul        a4, a4
     9aa:	9f59                	c.mul	x14,x14
                  andn         t2, a7, zero
     9ac:	4008f3b3          	andn	x7,x17,x0
                  binvi        t1, a4, 25
     9b0:	69971313          	binvi	x6,x14,0x19
                  c.sext.h     a2
     9b4:	9e6d                	c.sext.h	x12
                  bexti        a1, a1, 22
     9b6:	4965d593          	bexti	x11,x11,0x16
                  nop
     9ba:	0001                	c.addi	x0,0
                  c.mul        a2, a5
     9bc:	9e5d                	c.mul	x12,x15
                  zext.h       a1, s8
     9be:	080c45b3          	zext.h	x11,x24
                  bset         t1, gp, a2
     9c2:	28c19333          	bset	x6,x3,x12
                  c.add        s4, t2
     9c6:	9a1e                	c.add	x20,x7
                  mulhu        tp, t1, zero
     9c8:	02033233          	mulhu	x4,x6,x0
                  ror          s4, t1, s3
     9cc:	61335a33          	ror	x20,x6,x19
                  cm.pop       {ra, s0-s3}, 80 #end corev_zcmp_pushpop_base_stream_11
     9d0:	ba8e                	cm.pop	{x1,x8-x9,x18-x19},80

000009d2 <sub_4_20>:
sub_4_20:         jal          ra, 11f
     9d2:	020000ef          	jal	x1,9f2 <sub_4_20+0x20>
0:                c.jal        6f
     9d6:	2801                	c.jal	9e6 <sub_4_20+0x14>
1:                c.j          3f
     9d8:	a011                	c.j	9dc <sub_4_20+0xa>
2:                c.j          13f
     9da:	a839                	c.j	9f8 <sub_4_20+0x26>
3:                jal          t1, 2b
     9dc:	fffff36f          	jal	x6,9da <sub_4_20+0x8>
4:                c.j          7f
     9e0:	a021                	c.j	9e8 <sub_4_20+0x16>
5:                jal          t1, 12f
     9e2:	0140036f          	jal	x6,9f6 <sub_4_20+0x24>
6:                c.j          10f
     9e6:	a029                	c.j	9f0 <sub_4_20+0x1e>
7:                c.j          8f
     9e8:	a009                	c.j	9ea <sub_4_20+0x18>
8:                jal          ra, 5b
     9ea:	ff9ff0ef          	jal	x1,9e2 <sub_4_20+0x10>
9:                c.jal        4b
     9ee:	3fcd                	c.jal	9e0 <sub_4_20+0xe>
10:               c.jal        9b
     9f0:	3ffd                	c.jal	9ee <sub_4_20+0x1c>
11:               jal          t0, 0b
     9f2:	fe5ff2ef          	jal	x5,9d6 <sub_4_20+0x4>
12:               c.j          1b
     9f6:	b7cd                	c.j	9d8 <sub_4_20+0x6>
13:               mulhu        a0, gp, s5
     9f8:	0351b533          	mulhu	x10,x3,x21
                  csrrs        s5, 0x340, zero #start corev_zcmp_pushpop_base_stream_2
     9fc:	34002af3          	csrrs	x21,mscratch,x0
                  andi         t2, a5, -235
     a00:	f157f393          	andi	x7,x15,-235
                  c.sext.h     s1
     a04:	9ced                	c.sext.h	x9
                  sh3add       a3, t3, t6
     a06:	21fe66b3          	sh3add	x13,x28,x31
                  csrrc        s4, 0x340, a0
     a0a:	34053a73          	csrrc	x20,mscratch,x10
                  c.addi       a0, 12
     a0e:	0531                	c.addi	x10,12 # 846c200c <debug_exception+0x6a5b100c>
                  csrrci       s7, 0x340, 5
     a10:	3402fbf3          	csrrci	x23,mscratch,5
                  c.sext.b     a4
     a14:	9f65                	c.sext.b	x14
                  srai         t6, a1, 10
     a16:	40a5df93          	srai	x31,x11,0xa
                  sra          s11, s0, s7
     a1a:	41745db3          	sra	x27,x8,x23
                  c.li         a1, -1
     a1e:	55fd                	c.li	x11,-1
                  or           t5, s10, s11
     a20:	01bd6f33          	or	x30,x26,x27
                  max          tp, a1, s6
     a24:	0b65e233          	max	x4,x11,x22
                  clmulr       a4, a3, t3
     a28:	0bc6a733          	clmulr	x14,x13,x28
                  c.sub        a1, a3
     a2c:	8d95                	c.sub	x11,x13
                  ctz          s6, t0
     a2e:	60129b13          	ctz	x22,x5
                  clmul        s4, t3, a3
     a32:	0ade1a33          	clmul	x20,x28,x13
                  mulh         gp, t3, s0
     a36:	028e11b3          	mulh	x3,x28,x8
                  rori         a5, a4, 11
     a3a:	60b75793          	rori	x15,x14,0xb
                  bclr         t3, s6, a1
     a3e:	48bb1e33          	bclr	x28,x22,x11
                  csrrs        tp, 0x340, zero
     a42:	34002273          	csrrs	x4,mscratch,x0
                  mulhsu       s4, sp, a2
     a46:	02c12a33          	mulhsu	x20,x2,x12
                  sltu         s6, gp, a1
     a4a:	00b1bb33          	sltu	x22,x3,x11
                  xori         s6, a6, -1068
     a4e:	bd484b13          	xori	x22,x16,-1068
                  cm.push      {ra, s0-s9}, -96 #start zcmp push pop instr sequence
     a52:	b8ee                	cm.push	{x1,x8-x9,x18-x25},-96
                  slti         t6, s5, -507
     a54:	e05aaf93          	slti	x31,x21,-507
                  c.sub        a3, a3
     a58:	8e95                	c.sub	x13,x13
                  divu         t0, s0, s3
     a5a:	033452b3          	divu	x5,x8,x19
                  srli         t5, a5, 11
     a5e:	00b7df13          	srli	x30,x15,0xb
                  cm.pop       {ra, s0-s9}, 96 #end corev_zcmp_pushpop_base_stream_2
     a62:	baee                	cm.pop	{x1,x8-x9,x18-x25},96
                  andn         a5, t3, s3 #start corev_zcmp_pushpop_base_stream_5
     a64:	413e77b3          	andn	x15,x28,x19
                  c.addi       s1, 16
     a68:	04c1                	c.addi	x9,16
                  minu         t4, t4, t5
     a6a:	0beedeb3          	minu	x29,x29,x30
                  sra          s2, s0, gp
     a6e:	40345933          	sra	x18,x8,x3
                  bexti        s3, t1, 29
     a72:	49d35993          	bexti	x19,x6,0x1d
                  bexti        a5, t3, 16
     a76:	490e5793          	bexti	x15,x28,0x10
                  xori         s0, t1, -609
     a7a:	d9f34413          	xori	x8,x6,-609
                  cm.push      {ra, s0-s6}, -80 #start zcmp push pop instr sequence
     a7e:	b8be                	cm.push	{x1,x8-x9,x18-x22},-80
                  minu         a1, s4, t0
     a80:	0a5a55b3          	minu	x11,x20,x5
                  clmul        t4, t4, s11
     a84:	0bbe9eb3          	clmul	x29,x29,x27
                  add          ra, s0, s10
     a88:	01a400b3          	add	x1,x8,x26
                  sh3add       tp, zero, a6
     a8c:	21006233          	sh3add	x4,x0,x16
                  c.li         s7, 4
     a90:	4b91                	c.li	x23,4
                  sltiu        a2, s8, -158
     a92:	f62c3613          	sltiu	x12,x24,-158
                  lui          s11, 995337
     a96:	f3009db7          	lui	x27,0xf3009
                  sltiu        t1, t4, -627
     a9a:	d8deb313          	sltiu	x6,x29,-627
                  bext         ra, s8, t0
     a9e:	485c50b3          	bext	x1,x24,x5
                  c.zext.h     a5
     aa2:	9fe9                	c.zext.h	x15
                  clz          s3, s5
     aa4:	600a9993          	clz	x19,x21
                  orn          s1, s8, sp
     aa8:	402c64b3          	orn	x9,x24,x2
                  binvi        a7, t6, 27
     aac:	69bf9893          	binvi	x17,x31,0x1b
                  div          s4, s10, gp
     ab0:	023d4a33          	div	x20,x26,x3
                  sh1add       tp, a0, s4
     ab4:	21452233          	sh1add	x4,x10,x20
                  div          a3, ra, s11
     ab8:	03b0c6b3          	div	x13,x1,x27
                  rem          a0, s11, s1
     abc:	029de533          	rem	x10,x27,x9
                  slt          tp, s0, zero
     ac0:	00042233          	slt	x4,x8,x0
                  csrrc        ra, 0x340, zero
     ac4:	340030f3          	csrrc	x1,mscratch,x0
                  slti         s0, a1, 1193
     ac8:	4a95a413          	slti	x8,x11,1193
                  sext.h       s2, t0
     acc:	60529913          	sext.h	x18,x5
                  orn          s6, a6, s7
     ad0:	41786b33          	orn	x22,x16,x23
                  mul          a3, a4, t4
     ad4:	03d706b3          	mul	x13,x14,x29
                  bext         t6, t4, t2
     ad8:	487edfb3          	bext	x31,x29,x7
                  srl          t3, s1, s1
     adc:	0094de33          	srl	x28,x9,x9
                  clmulr       t4, ra, t1
     ae0:	0a60aeb3          	clmulr	x29,x1,x6
                  c.lui        s4, 0xffff3
     ae4:	7a4d                	c.lui	x20,0xffff3
                  c.srai       a5, 11
     ae6:	87ad                	c.srai	x15,0xb
                  c.mul        s0, s1
     ae8:	9c45                	c.mul	x8,x9
                  xor          a2, a2, a6
     aea:	01064633          	xor	x12,x12,x16
                  slli         s11, sp, 25
     aee:	01911d93          	slli	x27,x2,0x19
                  c.and        a1, a4
     af2:	8df9                	c.and	x11,x14
                  srl          s3, t3, s8
     af4:	018e59b3          	srl	x19,x28,x24
                  binv         s9, t5, s5
     af8:	695f1cb3          	binv	x25,x30,x21
                  minu         s11, a3, tp
     afc:	0a46ddb3          	minu	x27,x13,x4
                  c.srai       a5, 15
     b00:	87bd                	c.srai	x15,0xf
                  divu         s9, sp, s11
     b02:	03b15cb3          	divu	x25,x2,x27
                  c.and        a0, a5
     b06:	8d7d                	c.and	x10,x15
                  srai         s1, s5, 14
     b08:	40ead493          	srai	x9,x21,0xe
                  cm.pop       {ra, s0-s6}, 80 #end corev_zcmp_pushpop_base_stream_5
     b0c:	babe                	cm.pop	{x1,x8-x9,x18-x22},80
                  c.slli       a6, 23 #start corev_zcmp_pushpop_base_stream_6
     b0e:	085e                	c.slli	x16,0x17
                  srai         s7, t1, 10
     b10:	40a35b93          	srai	x23,x6,0xa
                  cm.push      {ra, s0-s8}, -96 #start zcmp push pop instr sequence
     b14:	b8de                	cm.push	{x1,x8-x9,x18-x24},-96
                  slti         t4, s7, 1341
     b16:	53dbae93          	slti	x29,x23,1341
                  cm.pop       {ra, s0-s8}, 96 #end corev_zcmp_pushpop_base_stream_6
     b1a:	bade                	cm.pop	{x1,x8-x9,x18-x24},96
                  clz          zero, t6 #start corev_zcmp_pushpop_base_stream_8
     b1c:	600f9013          	clz	x0,x31
                  cm.push      {ra, s0-s1}, -64 #start zcmp push pop instr sequence
     b20:	b86e                	cm.push	{x1,x8-x9},-64
                  sub          t0, a5, gp
     b22:	403782b3          	sub	x5,x15,x3
                  cm.pop       {ra, s0-s1}, 64 #end corev_zcmp_pushpop_base_stream_8
     b26:	ba6e                	cm.pop	{x1,x8-x9},64

00000b28 <sub_4_17>:
sub_4_17:         jal          ra, 12f
     b28:	022000ef          	jal	x1,b4a <sub_4_17+0x22>
0:                jal          ra, 9f
     b2c:	016000ef          	jal	x1,b42 <sub_4_17+0x1a>
1:                c.j          7f
     b30:	a039                	c.j	b3e <sub_4_17+0x16>
2:                c.jal        10f
     b32:	2809                	c.jal	b44 <sub_4_17+0x1c>
3:                c.jal        14f
     b34:	2831                	c.jal	b50 <sub_4_17+0x28>
4:                c.jal        17f
     b36:	2015                	c.jal	b5a <sub_4_17+0x32>
5:                c.j          16f
     b38:	a839                	c.j	b56 <sub_4_17+0x2e>
6:                jal          t1, 5b
     b3a:	fffff36f          	jal	x6,b38 <sub_4_17+0x10>
7:                c.j          3b
     b3e:	bfdd                	c.j	b34 <sub_4_17+0xc>
8:                c.j          1b
     b40:	bfc5                	c.j	b30 <sub_4_17+0x8>
9:                c.j          13f
     b42:	a031                	c.j	b4e <sub_4_17+0x26>
10:               jal          t1, 4b
     b44:	ff3ff36f          	jal	x6,b36 <sub_4_17+0xe>
11:               c.jal        15f
     b48:	2029                	c.jal	b52 <sub_4_17+0x2a>
12:               jal          ra, 11b
     b4a:	fffff0ef          	jal	x1,b48 <sub_4_17+0x20>
13:               c.jal        6b
     b4e:	37f5                	c.jal	b3a <sub_4_17+0x12>
14:               c.jal        2b
     b50:	37cd                	c.jal	b32 <sub_4_17+0xa>
15:               jal          ra, 0b
     b52:	fdbff0ef          	jal	x1,b2c <sub_4_17+0x4>
16:               jal          ra, 8b
     b56:	febff0ef          	jal	x1,b40 <sub_4_17+0x18>
17:               csrrc        t1, 0x340, s0
     b5a:	34043373          	csrrc	x6,mscratch,x8
                  bexti        t2, t6, 23
     b5e:	497fd393          	bexti	x7,x31,0x17
                  mulh         a2, s3, a5
     b62:	02f99633          	mulh	x12,x19,x15
                  sll          a5, a2, a4
     b66:	00e617b3          	sll	x15,x12,x14
                  c.li         s11, -1
     b6a:	5dfd                	c.li	x27,-1
                  c.xor        a3, a0
     b6c:	8ea9                	c.xor	x13,x10
                  c.add        a6, t0
     b6e:	9816                	c.add	x16,x5
                  csrrwi       a4, 0x340, 25
     b70:	340cd773          	csrrwi	x14,mscratch,25
                  rol          s0, a1, zero
     b74:	60059433          	rol	x8,x11,x0
                  bclr         s7, a3, a6
     b78:	49069bb3          	bclr	x23,x13,x16
                  mulh         s5, ra, t3
     b7c:	03c09ab3          	mulh	x21,x1,x28
                  csrrc        s11, 0x340, zero
     b80:	34003df3          	csrrc	x27,mscratch,x0
                  binvi        t0, gp, 31
     b84:	69f19293          	binvi	x5,x3,0x1f
                  bge          t5, t0, 26f
     b88:	025f5963          	bge	x30,x5,bba <sub_4_17+0x92>
                  binvi        t1, s1, 5
     b8c:	68549313          	binvi	x6,x9,0x5
                  sltiu        zero, a5, 1861
     b90:	7457b013          	sltiu	x0,x15,1861
                  div          a7, a2, a6
     b94:	030648b3          	div	x17,x12,x16
                  zext.h       t1, a4
     b98:	08074333          	zext.h	x6,x14
                  div          s9, a7, t0
     b9c:	0258ccb3          	div	x25,x17,x5
                  c.addi       s11, 19
     ba0:	0dcd                	c.addi	x27,19 # f3009013 <debug_exception+0xd8ef8013>
                  csrrs        t1, 0x340, zero
     ba2:	34002373          	csrrs	x6,mscratch,x0
                  sh2add       s4, a3, s2
     ba6:	2126ca33          	sh2add	x20,x13,x18
                  srl          a3, t0, t1
     baa:	0062d6b3          	srl	x13,x5,x6
                  c.sub        a3, s0
     bae:	8e81                	c.sub	x13,x8
                  addi         s1, a2, -1898
     bb0:	89660493          	addi	x9,x12,-1898 # 4c5ee76 <test_ret_val+0x445edb6>
                  c.srai       s1, 4
     bb4:	8491                	c.srai	x9,0x4
                  andn         t1, s3, s8
     bb6:	4189f333          	andn	x6,x19,x24
26:               mulhu        zero, s10, tp
     bba:	024d3033          	mulhu	x0,x26,x4
                  srl          s5, gp, a3
     bbe:	00d1dab3          	srl	x21,x3,x13
                  addi         a5, t6, 761
     bc2:	2f9f8793          	addi	x15,x31,761
                  rori         s2, t4, 15
     bc6:	60fed913          	rori	x18,x29,0xf
                  sltu         ra, a2, s9
     bca:	019630b3          	sltu	x1,x12,x25
                  c.sext.b     a1
     bce:	9de5                	c.sext.b	x11
                  sra          a4, s1, gp
     bd0:	4034d733          	sra	x14,x9,x3
                  clmul        t0, s11, s11
     bd4:	0bbd92b3          	clmul	x5,x27,x27
                  sh2add       zero, s4, a5
     bd8:	20fa4033          	sh2add	x0,x20,x15
                  addi         s6, tp, -949
     bdc:	c4b20b13          	addi	x22,x4,-949 # fffffc4b <debug_exception+0xe5eeec4b>
                  slti         s1, s7, 1697
     be0:	6a1ba493          	slti	x9,x23,1697
                  csrrsi       a7, 0x340, 27
     be4:	340de8f3          	csrrsi	x17,mscratch,27
                  ctz          a5, t3
     be8:	601e1793          	ctz	x15,x28
                  ori          gp, s1, 1925
     bec:	7854e193          	ori	x3,x9,1925
                  clz          ra, s1
     bf0:	60049093          	clz	x1,x9
                  c.slli       a6, 10
     bf4:	082a                	c.slli	x16,0xa
                  addi         t3, gp, 174
     bf6:	0ae18e13          	addi	x28,x3,174 # 317b6 <__global_pointer$+0xae>
                  bseti        a5, s4, 24
     bfa:	298a1793          	bseti	x15,x20,0x18
                  andi         zero, s2, -38
     bfe:	fda97013          	andi	x0,x18,-38
                  andn         zero, t4, sp
     c02:	402ef033          	andn	x0,x29,x2
                  bge          tp, s5, 57f
     c06:	03525363          	bge	x4,x21,c2c <sub_4_17+0x104>
                  div          a6, t6, a3
     c0a:	02dfc833          	div	x16,x31,x13
                  c.slli       t2, 23
     c0e:	03de                	c.slli	x7,0x17
                  c.add        s6, s6
     c10:	9b5a                	c.add	x22,x22
                  c.addi       a4, 12
     c12:	0731                	c.addi	x14,12 # a52aa00c <debug_exception+0x8b19900c>
                  srli         t3, a7, 3
     c14:	0038de13          	srli	x28,x17,0x3
                  binv         a4, a1, t4
     c18:	69d59733          	binv	x14,x11,x29
                  max          t5, t5, s1
     c1c:	0a9f6f33          	max	x30,x30,x9
                  minu         a5, tp, s1
     c20:	0a9257b3          	minu	x15,x4,x9
                  rem          s9, t6, t3
     c24:	03cfecb3          	rem	x25,x31,x28
                  beq          s8, t6, 64f
     c28:	01fc0f63          	beq	x24,x31,c46 <sub_4_17+0x11e>
57:               srl          a7, a6, zero
     c2c:	000858b3          	srl	x17,x16,x0
                  sh1add       tp, s5, s8
     c30:	218aa233          	sh1add	x4,x21,x24
                  csrrwi       s1, 0x340, 27
     c34:	340dd4f3          	csrrwi	x9,mscratch,27
                  andn         t1, t1, t1
     c38:	40637333          	andn	x6,x6,x6
                  c.slli       a3, 29
     c3c:	06f6                	c.slli	x13,0x1d
                  remu         t1, gp, s1
     c3e:	0291f333          	remu	x6,x3,x9
                  remu         t1, a1, s2
     c42:	0325f333          	remu	x6,x11,x18
64:               orc.b        s3, a1
     c46:	2875d993          	orc.b	x19,x11
                  andn         a7, a7, s6
     c4a:	4168f8b3          	andn	x17,x17,x22
                  c.srli       a3, 22
     c4e:	82d9                	c.srli	x13,0x16
                  minu         t5, s10, t0
     c50:	0a5d5f33          	minu	x30,x26,x5
                  sltiu        a2, s1, 581
     c54:	2454b613          	sltiu	x12,x9,581
                  blt          s6, s4, 79f
     c58:	054b4463          	blt	x22,x20,ca0 <sub_4_12+0x3a>
                  nop
     c5c:	0001                	c.addi	x0,0
                  binvi        a5, t6, 30
     c5e:	69ef9793          	binvi	x15,x31,0x1e
                  csrrw        a3, 0x340, s0
     c62:	340416f3          	csrrw	x13,mscratch,x8

00000c66 <sub_4_12>:
sub_4_12:         jal          ra, 1f
     c66:	006000ef          	jal	x1,c6c <sub_4_12+0x6>
0:                c.jal        5f
     c6a:	2801                	c.jal	c7a <sub_4_12+0x14>
1:                c.jal        6f
     c6c:	2801                	c.jal	c7c <sub_4_12+0x16>
2:                jal          t1, 3f
     c6e:	0040036f          	jal	x6,c72 <sub_4_12+0xc>
3:                jal          ra, 11f
     c72:	016000ef          	jal	x1,c88 <sub_4_12+0x22>
4:                jal          ra, 2b
     c76:	ff9ff0ef          	jal	x1,c6e <sub_4_12+0x8>
5:                c.j          7f
     c7a:	a011                	c.j	c7e <sub_4_12+0x18>
6:                c.j          0b
     c7c:	b7fd                	c.j	c6a <sub_4_12+0x4>
7:                c.j          10f
     c7e:	a021                	c.j	c86 <sub_4_12+0x20>
8:                jal          ra, 9f
     c80:	004000ef          	jal	x1,c84 <sub_4_12+0x1e>
9:                c.jal        4b
     c84:	3fcd                	c.jal	c76 <sub_4_12+0x10>
10:               c.jal        8b
     c86:	3fed                	c.jal	c80 <sub_4_12+0x1a>
11:               csrrc        tp, 0x340, zero
     c88:	34003273          	csrrc	x4,mscratch,x0
                  sh2add       s1, t2, s4
     c8c:	2143c4b3          	sh2add	x9,x7,x20
                  c.add        s11, s2
     c90:	9dca                	c.add	x27,x18
                  c.sext.h     a5
     c92:	9fed                	c.sext.h	x15
                  bset         ra, t0, t6
     c94:	29f290b3          	bset	x1,x5,x31
                  addi         s0, s4, 1854
     c98:	73ea0413          	addi	x8,x20,1854 # ffff373e <debug_exception+0xe5ee273e>
                  and          s5, t3, s7
     c9c:	017e7ab3          	and	x21,x28,x23
79:               sh1add       t4, s8, s2
     ca0:	212c2eb3          	sh1add	x29,x24,x18
                  bset         s1, s5, a6
     ca4:	290a94b3          	bset	x9,x21,x16
                  sh3add       zero, a6, s1
     ca8:	20986033          	sh3add	x0,x16,x9
                  nop
     cac:	0001                	c.addi	x0,0
                  ori          ra, a3, 1212
     cae:	4bc6e093          	ori	x1,x13,1212
                  andn         s3, a6, a5
     cb2:	40f879b3          	andn	x19,x16,x15
                  clmulr       a2, s1, s11
     cb6:	0bb4a633          	clmulr	x12,x9,x27
                  rori         a4, t2, 28
     cba:	61c3d713          	rori	x14,x7,0x1c
                  c.li         t3, -1
     cbe:	5e7d                	c.li	x28,-1
                  bext         s4, sp, s2
     cc0:	49215a33          	bext	x20,x2,x18
                  bset         t0, t6, s8
     cc4:	298f92b3          	bset	x5,x31,x24
                  cpop         gp, s8
     cc8:	602c1193          	cpop	x3,x24
                  andn         t1, t2, a7
     ccc:	4113f333          	andn	x6,x7,x17
                  srai         s5, zero, 18
     cd0:	41205a93          	srai	x21,x0,0x12
                  bgeu         tp, zero, 94f
     cd4:	00027263          	bgeu	x4,x0,cd8 <sub_4_12+0x72>
94:               maxu         ra, s6, ra
     cd8:	0a1b70b3          	maxu	x1,x22,x1
                  slt          s6, t1, a2
     cdc:	00c32b33          	slt	x22,x6,x12
                  cpop         a0, a7
     ce0:	60289513          	cpop	x10,x17
                  c.sub        a3, a1
     ce4:	8e8d                	c.sub	x13,x11
                  csrrsi       t0, 0x340, 0
     ce6:	340062f3          	csrrsi	x5,mscratch,0
                  andi         a7, t1, 1279
     cea:	4ff37893          	andi	x17,x6,1279
                  c.beqz       s1, 106f
     cee:	c891                	c.beqz	x9,d02 <sub_4_12+0x9c>
                  add          zero, t2, t5
     cf0:	01e38033          	add	x0,x7,x30
                  xnor         zero, ra, gp
     cf4:	4030c033          	xnor	x0,x1,x3
                  c.andi       a3, -1
     cf8:	9afd                	c.andi	x13,-1
                  csrrc        t0, 0x340, zero
     cfa:	340032f3          	csrrc	x5,mscratch,x0
                  minu         a3, t2, t0
     cfe:	0a53d6b3          	minu	x13,x7,x5
106:              srl          s11, t0, a3
     d02:	00d2ddb3          	srl	x27,x5,x13
                  srl          t3, zero, a2
     d06:	00c05e33          	srl	x28,x0,x12
                  c.andi       a5, -1
     d0a:	9bfd                	c.andi	x15,-1
                  slti         a1, s6, -1344
     d0c:	ac0b2593          	slti	x11,x22,-1344
                  min          s9, a7, s1
     d10:	0a98ccb3          	min	x25,x17,x9
                  c.nop
     d14:	0001                	c.addi	x0,0
                  sext.h       t2, a5
     d16:	60579393          	sext.h	x7,x15
                  min          t5, s5, s0
     d1a:	0a8acf33          	min	x30,x21,x8
                  csrrci       t4, 0x340, 11
     d1e:	3405fef3          	csrrci	x29,mscratch,11
                  xor          ra, s2, s1
     d22:	009940b3          	xor	x1,x18,x9
                  c.mv         s11, a7
     d26:	8dc6                	c.mv	x27,x17
                  mulhsu       s4, s9, t6
     d28:	03fcaa33          	mulhsu	x20,x25,x31
                  slt          t3, s6, s6
     d2c:	016b2e33          	slt	x28,x22,x22
                  xori         a7, sp, 1017
     d30:	3f914893          	xori	x17,x2,1017
                  bge          a1, a6, 133f
     d34:	0305d863          	bge	x11,x16,d64 <sub_4_12+0xfe>
                  clz          t6, zero
     d38:	60001f93          	clz	x31,x0
                  csrrw        t1, 0x340, a0
     d3c:	34051373          	csrrw	x6,mscratch,x10
                  bne          a1, s5, 136f
     d40:	03559863          	bne	x11,x21,d70 <sub_4_12+0x10a>
                  mulh         s0, zero, s6
     d44:	03601433          	mulh	x8,x0,x22
                  srai         zero, a5, 30
     d48:	41e7d013          	srai	x0,x15,0x1e
                  zext.h       zero, a0
     d4c:	08054033          	zext.h	x0,x10
                  zext.h       t6, s8
     d50:	080c4fb3          	zext.h	x31,x24
                  and          t2, tp, s2
     d54:	012273b3          	and	x7,x4,x18
                  nop
     d58:	0001                	c.addi	x0,0
                  c.sext.h     s0
     d5a:	9c6d                	c.sext.h	x8
                  rem          s7, s3, s9
     d5c:	0399ebb3          	rem	x23,x19,x25
                  slt          zero, t5, s0
     d60:	008f2033          	slt	x0,x30,x8
133:              or           a7, t6, s0
     d64:	008fe8b3          	or	x17,x31,x8
                  min          t5, s10, a2
     d68:	0acd4f33          	min	x30,x26,x12
                  bclr         a5, zero, gp
     d6c:	483017b3          	bclr	x15,x0,x3
136:              maxu         s2, t5, a4
     d70:	0aef7933          	maxu	x18,x30,x14
                  div          gp, tp, s11
     d74:	03b241b3          	div	x3,x4,x27
                  binv         t6, a0, a2
     d78:	68c51fb3          	binv	x31,x10,x12
                  c.addi       a2, 4
     d7c:	0611                	c.addi	x12,4
                  max          t1, gp, ra
     d7e:	0a11e333          	max	x6,x3,x1
                  clmulr       s11, t4, t5
     d82:	0beeadb3          	clmulr	x27,x29,x30
                  srli         a5, a2, 1
     d86:	00165793          	srli	x15,x12,0x1
                  mulh         gp, a2, t5
     d8a:	03e611b3          	mulh	x3,x12,x30
                  sext.b       zero, s1
     d8e:	60449013          	sext.b	x0,x9
                  c.sext.b     a4
     d92:	9f65                	c.sext.b	x14
                  xor          tp, a2, t6
     d94:	01f64233          	xor	x4,x12,x31
                  csrrsi       t4, 0x340, 1
     d98:	3400eef3          	csrrsi	x29,mscratch,1
                  c.and        a4, s0
     d9c:	8f61                	c.and	x14,x8
                  c.addi       t4, 7
     d9e:	0e9d                	c.addi	x29,7 # 80000007 <debug_exception+0x65eef007>
                  bset         gp, zero, a5
     da0:	28f011b3          	bset	x3,x0,x15
                  csrrci       t2, 0x340, 7
     da4:	3403f3f3          	csrrci	x7,mscratch,7
                  c.bnez       a2, 168f
     da8:	ee05                	c.bnez	x12,de0 <sub_4_12+0x17a>
                  rem          s7, a7, a2
     daa:	02c8ebb3          	rem	x23,x17,x12
                  bclr         ra, t3, t3
     dae:	49ce10b3          	bclr	x1,x28,x28
                  c.addi       s11, 1
     db2:	0d85                	c.addi	x27,1
                  mul          s6, a2, a5
     db4:	02f60b33          	mul	x22,x12,x15
                  sh1add       t5, a5, t4
     db8:	21d7af33          	sh1add	x30,x15,x29
                  clmulh       s2, t2, ra
     dbc:	0a13b933          	clmulh	x18,x7,x1
                  zext.h       s9, s4
     dc0:	080a4cb3          	zext.h	x25,x20
                  andi         s5, s8, -1054
     dc4:	be2c7a93          	andi	x21,x24,-1054
                  c.bnez       a1, 168f
     dc8:	ed81                	c.bnez	x11,de0 <sub_4_12+0x17a>
                  addi         s7, s10, 1286
     dca:	506d0b93          	addi	x23,x26,1286
                  binv         t2, gp, zero
     dce:	680193b3          	binv	x7,x3,x0
                  c.srai       a1, 30
     dd2:	85f9                	c.srai	x11,0x1e
                  fence.i
     dd4:	0000100f          	fence.i
                  fence.i
     dd8:	0000100f          	fence.i
                  beq          a4, s11, 187f
     ddc:	03b70f63          	beq	x14,x27,e1a <sub_4_12+0x1b4>
168:              mul          s4, t6, t6
     de0:	03ff8a33          	mul	x20,x31,x31
                  c.mul        a5, a5
     de4:	9fdd                	c.mul	x15,x15
                  c.xor        a1, a0
     de6:	8da9                	c.xor	x11,x10
                  c.beqz       a3, 188f
     de8:	ca9d                	c.beqz	x13,e1e <sub_4_12+0x1b8>
                  c.srai       a0, 17
     dea:	8545                	c.srai	x10,0x11
                  andi         a2, a3, 89
     dec:	0596f613          	andi	x12,x13,89
                  nop
     df0:	0001                	c.addi	x0,0
                  c.mv         a6, t4
     df2:	8876                	c.mv	x16,x29
                  binv         s11, a1, a3
     df4:	68d59db3          	binv	x27,x11,x13
                  c.zext.b     s1
     df8:	9ce1                	c.zext.b	x9
                  bclri        t3, sp, 6
     dfa:	85d2                	c.mv	x11,x20
     dfc:	48611e13          	bclri	x28,x2,0x6
                  fence.i
     e00:	0000100f          	fence.i
                  c.li         a7, 15
     e04:	48bd                	c.li	x17,15
                  divu         zero, s11, s5
     e06:	035dd033          	divu	x0,x27,x21
                  srl          t6, a4, a6
     e0a:	01075fb3          	srl	x31,x14,x16
                  rori         s7, a2, 29
     e0e:	61d65b93          	rori	x23,x12,0x1d
                  sh3add       a3, ra, a5
     e12:	20f0e6b3          	sh3add	x13,x1,x15
                  mulh         t5, t6, s6
     e16:	036f9f33          	mulh	x30,x31,x22
187:              mulhu        s9, t3, a0
     e1a:	02ae3cb3          	mulhu	x25,x28,x10
188:              srli         a0, t4, 27
     e1e:	01bed513          	srli	x10,x29,0x1b
                  rori         s2, s6, 19
     e22:	613b5913          	rori	x18,x22,0x13
                  c.sub        a3, s1
     e26:	8e85                	c.sub	x13,x9
                  sub          s6, a6, a7
     e28:	41180b33          	sub	x22,x16,x17
                  csrrs        s4, 0x340, s6
     e2c:	340b2a73          	csrrs	x20,mscratch,x22
                  clmulr       a5, s2, s9
     e30:	0b9927b3          	clmulr	x15,x18,x25
                  fence
     e34:	0ff0000f          	fence	iorw,iorw
                  c.sub        s1, a0
     e38:	8c89                	c.sub	x9,x10
                  sh3add       gp, a0, t0
     e3a:	205561b3          	sh3add	x3,x10,x5
                  nop
     e3e:	0001                	c.addi	x0,0
                  andi         a2, ra, 1243
     e40:	4db0f613          	andi	x12,x1,1243
                  csrrci       s3, 0x340, 0
     e44:	340079f3          	csrrci	x19,mscratch,0
                  srli         a3, s11, 7
     e48:	007dd693          	srli	x13,x27,0x7
                  ctz          a0, t1
     e4c:	60131513          	ctz	x10,x6
                  c.andi       a2, 9
     e50:	8a25                	c.andi	x12,9
                  c.sext.h     a3
     e52:	9eed                	c.sext.h	x13
                  binv         s11, s9, a2
     e54:	68cc9db3          	binv	x27,x25,x12
                  c.add        t5, t2
     e58:	9f1e                	c.add	x30,x7
                  c.xor        a4, a3
     e5a:	8f35                	c.xor	x14,x13
                  csrrwi       tp, 0x340, 9
     e5c:	3404d273          	csrrwi	x4,mscratch,9
                  c.and        a2, a3
     e60:	8e75                	c.and	x12,x13
                  sh3add       t2, s9, s8
     e62:	218ce3b3          	sh3add	x7,x25,x24
                  bclri        t1, ra, 8
     e66:	48809313          	bclri	x6,x1,0x8
                  mulh         a7, t4, a6
     e6a:	030e98b3          	mulh	x17,x29,x16
                  orn          a0, t1, a5
     e6e:	40f36533          	orn	x10,x6,x15
                  div          s6, a7, a0
     e72:	02a8cb33          	div	x22,x17,x10
                  xor          s11, t0, ra
     e76:	0012cdb3          	xor	x27,x5,x1
                  or           s4, t3, t6
     e7a:	01fe6a33          	or	x20,x28,x31
                  fence
     e7e:	0ff0000f          	fence	iorw,iorw
                  bclri        t3, t4, 31
     e82:	49fe9e13          	bclri	x28,x29,0x1f
                  zext.h       a0, ra
     e86:	0800c533          	zext.h	x10,x1
                  c.sext.b     a1
     e8a:	9de5                	c.sext.b	x11
                  sh1add       s3, s0, t0
     e8c:	205429b3          	sh1add	x19,x8,x5
                  bexti        t2, s3, 8
     e90:	4889d393          	bexti	x7,x19,0x8
                  c.sext.h     a0
     e94:	9d6d                	c.sext.h	x10
                  mulhu        t1, s11, s2
     e96:	032db333          	mulhu	x6,x27,x18
                  slt          s9, tp, a5
     e9a:	00f22cb3          	slt	x25,x4,x15
                  div          t4, t0, a6
     e9e:	0302ceb3          	div	x29,x5,x16
                  and          a0, a6, s3
     ea2:	01387533          	and	x10,x16,x19
                  binv         t6, tp, a7
     ea6:	69121fb3          	binv	x31,x4,x17
                  csrrs        s2, 0x340, a1
     eaa:	3405a973          	csrrs	x18,mscratch,x11
                  slt          s4, sp, s4
     eae:	01412a33          	slt	x20,x2,x20
                  c.and        a3, a1
     eb2:	8eed                	c.and	x13,x11
                  csrrs        gp, 0x340, zero
     eb4:	340021f3          	csrrs	x3,mscratch,x0
                  slt          a1, a6, s2
     eb8:	012825b3          	slt	x11,x16,x18
                  csrrs        t5, 0x340, s6
     ebc:	340b2f73          	csrrs	x30,mscratch,x22
                  clmulh       t5, s9, s11
     ec0:	0bbcbf33          	clmulh	x30,x25,x27
                  beq          a3, a7, 248f
     ec4:	03168863          	beq	x13,x17,ef4 <sub_4_12+0x28e>
                  minu         a2, t3, a0
     ec8:	0aae5633          	minu	x12,x28,x10
                  csrrsi       t6, 0x340, 0
     ecc:	34006ff3          	csrrsi	x31,mscratch,0
                  sext.h       s0, ra
     ed0:	60509413          	sext.h	x8,x1
                  mul          a6, s2, s2
     ed4:	03290833          	mul	x16,x18,x18
                  mulhu        a0, t4, a0
     ed8:	02aeb533          	mulhu	x10,x29,x10
                  or           s6, s5, t3
     edc:	01caeb33          	or	x22,x21,x28
                  c.zext.b     a5
     ee0:	9fe1                	c.zext.b	x15
                  bexti        a2, t4, 17
     ee2:	491ed613          	bexti	x12,x29,0x11
                  slli         s9, tp, 5
     ee6:	00521c93          	slli	x25,x4,0x5
                  bexti        zero, gp, 2
     eea:	4821d013          	bexti	x0,x3,0x2
                  c.mv         s7, gp
     eee:	8b8e                	c.mv	x23,x3
                  srli         s2, a7, 12
     ef0:	00c8d913          	srli	x18,x17,0xc
248:              srli         t1, t3, 22
     ef4:	016e5313          	srli	x6,x28,0x16
                  srli         s1, s4, 2
     ef8:	002a5493          	srli	x9,x20,0x2
                  srl          t2, t0, s3
     efc:	0132d3b3          	srl	x7,x5,x19
                  slli         t4, a7, 7
     f00:	00789e93          	slli	x29,x17,0x7
                  bge          s9, s4, 269f
     f04:	034cdd63          	bge	x25,x20,f3e <sub_4_12+0x2d8>
                  mul          s11, t5, s9
     f08:	039f0db3          	mul	x27,x30,x25
                  srl          t2, t3, sp
     f0c:	002e53b3          	srl	x7,x28,x2
                  c.bnez       s0, 267f
     f10:	e01d                	c.bnez	x8,f36 <sub_4_12+0x2d0>
                  clmulh       ra, a5, sp
     f12:	0a27b0b3          	clmulh	x1,x15,x2
                  c.mv         s7, t5
     f16:	8bfa                	c.mv	x23,x30
                  blt          t1, a3, 266f
     f18:	00d34d63          	blt	x6,x13,f32 <sub_4_12+0x2cc>
                  mulhsu       ra, t5, s4
     f1c:	034f20b3          	mulhsu	x1,x30,x20
                  clmul        s1, s8, s4
     f20:	0b4c14b3          	clmul	x9,x24,x20
                  slti         s3, s6, -1941
     f24:	86bb2993          	slti	x19,x22,-1941
                  div          tp, s3, sp
     f28:	0229c233          	div	x4,x19,x2
                  c.add        s5, t5
     f2c:	9afa                	c.add	x21,x30
                  c.li         t5, -1
     f2e:	5f7d                	c.li	x30,-1
                  c.lui        t0, 0xfffea
     f30:	72a9                	c.lui	x5,0xfffea
266:              srli         s3, s11, 24
     f32:	018dd993          	srli	x19,x27,0x18
267:              binv         a6, a4, ra
     f36:	68171833          	binv	x16,x14,x1
                  auipc        t2, 192372
     f3a:	2ef74397          	auipc	x7,0x2ef74
269:              c.mv         t2, s8
     f3e:	83e2                	c.mv	x7,x24
                  bseti        t0, t4, 1
     f40:	281e9293          	bseti	x5,x29,0x1
                  bset         s9, t0, t5
     f44:	29e29cb3          	bset	x25,x5,x30
                  csrrwi       t5, 0x340, 0
     f48:	34005f73          	csrrwi	x30,mscratch,0
                  div          s2, a7, t0
     f4c:	0258c933          	div	x18,x17,x5
                  srai         s6, a7, 30
     f50:	41e8db13          	srai	x22,x17,0x1e
                  c.or         a0, a3
     f54:	8d55                	c.or	x10,x13
                  sext.h       s0, a0
     f56:	60551413          	sext.h	x8,x10
                  rev8         s5, s4
     f5a:	698a5a93          	rev8	x21,x20
                  c.mul        a1, a2
     f5e:	9dd1                	c.mul	x11,x12
                  sll          s4, t0, zero
     f60:	00029a33          	sll	x20,x5,x0
                  andi         t2, t3, 1620
     f64:	654e7393          	andi	x7,x28,1620
                  fence
     f68:	0ff0000f          	fence	iorw,iorw
                  c.mul        a4, a5
     f6c:	9f5d                	c.mul	x14,x15
                  c.add        s11, a3
     f6e:	9db6                	c.add	x27,x13
                  orn          s3, s8, s7
     f70:	417c69b3          	orn	x19,x24,x23
                  mulh         t0, t2, s1
     f74:	029392b3          	mulh	x5,x7,x9
                  c.and        a0, s1
     f78:	8d65                	c.and	x10,x9
                  bseti        a3, a6, 23
     f7a:	29781693          	bseti	x13,x16,0x17
                  bclri        a2, sp, 18
     f7e:	49211613          	bclri	x12,x2,0x12
                  sh2add       s1, a2, sp
     f82:	202644b3          	sh2add	x9,x12,x2
                  c.slli       s1, 17
     f86:	04c6                	c.slli	x9,0x11
                  cpop         t5, s3
     f88:	60299f13          	cpop	x30,x19
                  mulhu        a2, s4, tp
     f8c:	024a3633          	mulhu	x12,x20,x4
                  clmul        a7, a6, a3
     f90:	0ad818b3          	clmul	x17,x16,x13
                  c.sub        a2, a2
     f94:	8e11                	c.sub	x12,x12
                  clz          s4, s3
     f96:	60099a13          	clz	x20,x19
                  srai         s6, a4, 10
     f9a:	40a75b13          	srai	x22,x14,0xa
                  clmul        a7, s0, s4
     f9e:	0b4418b3          	clmul	x17,x8,x20
                  c.lui        ra, 3
     fa2:	608d                	c.lui	x1,0x3
                  and          s7, a3, a4
     fa4:	00e6fbb3          	and	x23,x13,x14
                  c.sub        s1, a4
     fa8:	8c99                	c.sub	x9,x14
                  csrrci       a4, 0x340, 0
     faa:	34007773          	csrrci	x14,mscratch,0
                  add          ra, a7, t5
     fae:	01e880b3          	add	x1,x17,x30
                  and          a6, s6, tp
     fb2:	004b7833          	and	x16,x22,x4
                  c.bnez       s1, 314f
     fb6:	e09d                	c.bnez	x9,fdc <sub_4_12+0x376>
                  rev8         a0, a4
     fb8:	69875513          	rev8	x10,x14
                  and          a7, a4, s8
     fbc:	018778b3          	and	x17,x14,x24
                  blt          sp, s6, 323f
     fc0:	05614063          	blt	x2,x22,1000 <sub_4_12+0x39a>
                  ctz          a5, s0
     fc4:	60141793          	ctz	x15,x8
                  csrrw        a3, 0x340, t4
     fc8:	340e96f3          	csrrw	x13,mscratch,x29
                  sltu         a4, s1, s5
     fcc:	0154b733          	sltu	x14,x9,x21
                  slli         t0, s10, 12
     fd0:	00cd1293          	slli	x5,x26,0xc
                  xor          s2, s10, a5
     fd4:	00fd4933          	xor	x18,x26,x15
                  csrrsi       gp, 0x340, 6
     fd8:	340361f3          	csrrsi	x3,mscratch,6
314:              xor          s9, sp, s6
     fdc:	01614cb3          	xor	x25,x2,x22
                  binvi        a1, a5, 10
     fe0:	68a79593          	binvi	x11,x15,0xa
                  andn         t3, a7, s11
     fe4:	41b8fe33          	andn	x28,x17,x27
                  binv         s11, s6, t2
     fe8:	687b1db3          	binv	x27,x22,x7
                  addi         a4, gp, 2024
     fec:	7e818713          	addi	x14,x3,2024 # 31ef0 <__global_pointer$+0x7e8>
                  slti         s1, s1, 287
     ff0:	11f4a493          	slti	x9,x9,287
                  sh3add       t5, t5, a2
     ff4:	20cf6f33          	sh3add	x30,x30,x12
                  maxu         t6, s11, t4
     ff8:	0bddffb3          	maxu	x31,x27,x29
                  sra          t1, zero, s11
     ffc:	41b05333          	sra	x6,x0,x27
323:              sh3add       s3, a5, a4
    1000:	20e7e9b3          	sh3add	x19,x15,x14
                  csrrc        s0, 0x340, s9
    1004:	340cb473          	csrrc	x8,mscratch,x25
                  nop
    1008:	0001                	c.addi	x0,0
                  orc.b        t6, s2
    100a:	28795f93          	orc.b	x31,x18
                  sext.b       s9, s0
    100e:	60441c93          	sext.b	x25,x8
                  c.sext.h     a4
    1012:	9f6d                	c.sext.h	x14
                  c.sext.h     a5
    1014:	9fed                	c.sext.h	x15
                  xor          tp, t6, a3
    1016:	00dfc233          	xor	x4,x31,x13
                  slli         a3, t3, 23
    101a:	017e1693          	slli	x13,x28,0x17
                  bne          zero, a6, 334f
    101e:	01001363          	bne	x0,x16,1024 <sub_4_12+0x3be>
                  c.zext.b     a0
    1022:	9d61                	c.zext.b	x10
334:              c.not        a3
    1024:	9ef5                	c.not	x13
                  c.lui        s0, 0xffff9
    1026:	7465                	c.lui	x8,0xffff9
                  sra          s5, t0, a7
    1028:	4112dab3          	sra	x21,x5,x17
                  c.and        a4, a5
    102c:	8f7d                	c.and	x14,x15
                  srli         t5, a6, 11
    102e:	00b85f13          	srli	x30,x16,0xb
                  c.srli       s0, 27
    1032:	806d                	c.srli	x8,0x1b
                  xori         t2, s7, -592
    1034:	db0bc393          	xori	x7,x23,-592
                  bltu         ra, a7, 361f
    1038:	0510e763          	bltu	x1,x17,1086 <sub_4_12+0x420>
                  c.zext.b     a5
    103c:	9fe1                	c.zext.b	x15
                  min          s4, s9, a6
    103e:	0b0cca33          	min	x20,x25,x16
                  ctz          s5, a0
    1042:	60151a93          	ctz	x21,x10
                  sub          t5, t5, t2
    1046:	407f0f33          	sub	x30,x30,x7
                  sext.b       t0, s11
    104a:	604d9293          	sext.b	x5,x27
                  bset         a6, t0, a6
    104e:	29029833          	bset	x16,x5,x16
                  mulhsu       tp, a0, t3
    1052:	03c52233          	mulhsu	x4,x10,x28
                  xnor         s1, s5, s6
    1056:	416ac4b3          	xnor	x9,x21,x22
                  binvi        s11, s5, 29
    105a:	69da9d93          	binvi	x27,x21,0x1d
                  ctz          t1, a7
    105e:	60189313          	ctz	x6,x17
                  rev8         a2, t5
    1062:	698f5613          	rev8	x12,x30
                  sh2add       s6, gp, s11
    1066:	21b1cb33          	sh2add	x22,x3,x27
                  bset         s0, sp, s5
    106a:	29511433          	bset	x8,x2,x21
                  bexti        s1, t5, 5
    106e:	485f5493          	bexti	x9,x30,0x5
                  mul          a7, a2, s3
    1072:	033608b3          	mul	x17,x12,x19
                  div          a7, s5, a5
    1076:	02fac8b3          	div	x17,x21,x15
                  csrrsi       a7, 0x340, 0
    107a:	340068f3          	csrrsi	x17,mscratch,0
                  fence.i
    107e:	0000100f          	fence.i
                  zext.h       a4, s7
    1082:	080bc733          	zext.h	x14,x23
361:              bexti        s4, a6, 7
    1086:	48785a13          	bexti	x20,x16,0x7
                  andi         s6, t1, -684
    108a:	d5437b13          	andi	x22,x6,-684
                  fence.i
    108e:	0000100f          	fence.i
                  c.and        a3, a5
    1092:	8efd                	c.and	x13,x15
                  srai         t1, a6, 4
    1094:	40485313          	srai	x6,x16,0x4
                  c.mv         s7, gp
    1098:	8b8e                	c.mv	x23,x3
                  c.sext.b     a4
    109a:	9f65                	c.sext.b	x14
                  c.mv         gp, s9
    109c:	81e6                	c.mv	x3,x25
                  sext.b       s1, a6
    109e:	60481493          	sext.b	x9,x16
                  cpop         gp, zero
    10a2:	60201193          	cpop	x3,x0
                  sext.h       t4, s7
    10a6:	605b9e93          	sext.h	x29,x23
                  csrrwi       t2, 0x340, 26
    10aa:	340d53f3          	csrrwi	x7,mscratch,26
                  xori         t1, t6, 494
    10ae:	1eefc313          	xori	x6,x31,494
                  add          s0, t2, s2
    10b2:	01238433          	add	x8,x7,x18
                  bseti        s3, a5, 25
    10b6:	29979993          	bseti	x19,x15,0x19
                  divu         a2, s9, zero
    10ba:	020cd633          	divu	x12,x25,x0
                  sh3add       ra, a6, zero
    10be:	200860b3          	sh3add	x1,x16,x0
                  binv         s9, s10, s10
    10c2:	69ad1cb3          	binv	x25,x26,x26
                  c.sext.h     a2
    10c6:	9e6d                	c.sext.h	x12
                  cpop         t5, t6
    10c8:	602f9f13          	cpop	x30,x31
                  clz          t6, s1
    10cc:	60049f93          	clz	x31,x9
                  sh3add       t4, s11, t3
    10d0:	21cdeeb3          	sh3add	x29,x27,x28
                  sh3add       t1, s7, a4
    10d4:	20ebe333          	sh3add	x6,x23,x14
                  bexti        t2, s9, 21
    10d8:	495cd393          	bexti	x7,x25,0x15
                  max          a5, a5, gp
    10dc:	0a37e7b3          	max	x15,x15,x3
                  c.slli       s7, 14
    10e0:	0bba                	c.slli	x23,0xe
                  srl          s3, a7, s0
    10e2:	0088d9b3          	srl	x19,x17,x8
                  ror          a2, tp, s7
    10e6:	61725633          	ror	x12,x4,x23
                  clz          s7, s11
    10ea:	600d9b93          	clz	x23,x27
                  binvi        s0, a4, 0
    10ee:	68071413          	binvi	x8,x14,0x0
                  c.not        a3
    10f2:	9ef5                	c.not	x13
                  fence.i
    10f4:	0000100f          	fence.i
                  c.nop
    10f8:	0001                	c.addi	x0,0
                  slli         t5, sp, 1
    10fa:	00111f13          	slli	x30,x2,0x1
                  div          t1, s7, a6
    10fe:	030bc333          	div	x6,x23,x16
                  bgeu         s2, a2, 413f
    1102:	04c97063          	bgeu	x18,x12,1142 <sub_4_12+0x4dc>
                  bexti        a4, s10, 3
    1106:	483d5713          	bexti	x14,x26,0x3
                  clz          t2, sp
    110a:	60011393          	clz	x7,x2
                  mulhu        a7, s10, t6
    110e:	03fd38b3          	mulhu	x17,x26,x31
                  bclr         zero, s5, sp
    1112:	482a9033          	bclr	x0,x21,x2
                  c.srli       a0, 12
    1116:	8131                	c.srli	x10,0xc
                  clmulr       a3, s10, a5
    1118:	0afd26b3          	clmulr	x13,x26,x15
                  xnor         a2, s11, a5
    111c:	40fdc633          	xnor	x12,x27,x15
                  mulhu        s0, gp, a7
    1120:	0311b433          	mulhu	x8,x3,x17
                  mulhsu       t0, a0, t3
    1124:	03c522b3          	mulhsu	x5,x10,x28
                  rev8         s7, s7
    1128:	698bdb93          	rev8	x23,x23
                  ror          zero, s2, s10
    112c:	61a95033          	ror	x0,x18,x26
                  ror          s5, s5, a3
    1130:	60dadab3          	ror	x21,x21,x13
                  csrrs        tp, 0x340, zero
    1134:	34002273          	csrrs	x4,mscratch,x0
                  sext.h       s5, s8
    1138:	605c1a93          	sext.h	x21,x24
                  srl          ra, s1, s6
    113c:	0164d0b3          	srl	x1,x9,x22
                  c.addi       s5, 3
    1140:	0a8d                	c.addi	x21,3
413:              sltu         t0, s6, s9
    1142:	019b32b3          	sltu	x5,x22,x25
                  sext.b       a4, s7
    1146:	604b9713          	sext.b	x14,x23
                  mulhsu       t0, t5, t2
    114a:	027f22b3          	mulhsu	x5,x30,x7
                  fence
    114e:	0ff0000f          	fence	iorw,iorw
                  csrrci       s4, 0x340, 0
    1152:	34007a73          	csrrci	x20,mscratch,0
                  c.slli       t0, 12
    1156:	02b2                	c.slli	x5,0xc
                  binvi        s9, s9, 15
    1158:	68fc9c93          	binvi	x25,x25,0xf
                  rori         t4, s6, 15
    115c:	60fb5e93          	rori	x29,x22,0xf
                  bne          t4, s11, 438f
    1160:	05be9063          	bne	x29,x27,11a0 <sub_4_12+0x53a>
                  xori         ra, t6, 1892
    1164:	764fc093          	xori	x1,x31,1892
                  mulhu        s11, a1, s6
    1168:	0365bdb3          	mulhu	x27,x11,x22
                  andi         a7, ra, -922
    116c:	c660f893          	andi	x17,x1,-922
                  rol          a0, s1, s7
    1170:	61749533          	rol	x10,x9,x23
                  fence.i
    1174:	0000100f          	fence.i
                  andi         s4, t3, 1462
    1178:	5b6e7a13          	andi	x20,x28,1462
                  blt          s0, t2, 432f
    117c:	00744863          	blt	x8,x7,118c <sub_4_12+0x526>
                  addi         gp, s3, 1583
    1180:	62f98193          	addi	x3,x19,1583 # 8000062f <debug_exception+0x65eef62f>
                  ori          s3, t2, 278
    1184:	1163e993          	ori	x19,x7,278
                  xori         s6, t1, -1166
    1188:	b7234b13          	xori	x22,x6,-1166
432:              csrrw        zero, 0x340, sp
    118c:	34011073          	csrrw	x0,mscratch,x2
                  sh2add       s0, a2, a5
    1190:	20f64433          	sh2add	x8,x12,x15
                  c.mv         tp, s1
    1194:	8226                	c.mv	x4,x9
                  c.xor        a2, a4
    1196:	8e39                	c.xor	x12,x14
                  sh2add       zero, s10, a5
    1198:	20fd4033          	sh2add	x0,x26,x15
                  csrrs        s9, 0x340, zero
    119c:	34002cf3          	csrrs	x25,mscratch,x0
438:              srai         a3, t2, 16
    11a0:	4103d693          	srai	x13,x7,0x10
                  srli         s0, s6, 24
    11a4:	018b5413          	srli	x8,x22,0x18
                  cpop         a0, t3
    11a8:	602e1513          	cpop	x10,x28
                  c.xor        a2, a3
    11ac:	8e35                	c.xor	x12,x13
                  srl          s11, s8, t1
    11ae:	006c5db3          	srl	x27,x24,x6
                  beq          t4, sp, 458f
    11b2:	022e8c63          	beq	x29,x2,11ea <sub_4_12+0x584>
                  csrrw        a5, 0x340, s0
    11b6:	340417f3          	csrrw	x15,mscratch,x8
                  csrrci       t4, 0x340, 0
    11ba:	34007ef3          	csrrci	x29,mscratch,0
                  slti         a6, a1, -621
    11be:	d935a813          	slti	x16,x11,-621
                  orn          s7, s10, s4
    11c2:	414d6bb3          	orn	x23,x26,x20
                  blt          t5, s7, 451f
    11c6:	017f4663          	blt	x30,x23,11d2 <sub_4_12+0x56c>
                  sltu         tp, s10, s0
    11ca:	008d3233          	sltu	x4,x26,x8
                  mul          a5, t0, a5
    11ce:	02f287b3          	mul	x15,x5,x15
451:              max          s0, a4, gp
    11d2:	0a376433          	max	x8,x14,x3
                  c.andi       a3, 16
    11d6:	8ac1                	c.andi	x13,16
                  c.mv         t4, t5
    11d8:	8efa                	c.mv	x29,x30
                  lui          s0, 527352
    11da:	80bf8437          	lui	x8,0x80bf8
                  rem          t3, t0, s7
    11de:	0372ee33          	rem	x28,x5,x23
                  bgeu         s8, a0, 458f
    11e2:	00ac7463          	bgeu	x24,x10,11ea <sub_4_12+0x584>
                  bseti        s3, s6, 9
    11e6:	289b1993          	bseti	x19,x22,0x9
458:              c.srli       s0, 29
    11ea:	8075                	c.srli	x8,0x1d
                  sll          s0, s8, zero
    11ec:	000c1433          	sll	x8,x24,x0
                  c.addi       t6, -1
    11f0:	1ffd                	c.addi	x31,-1
                  slli         t2, s0, 13
    11f2:	00d41393          	slli	x7,x8,0xd
                  fence
    11f6:	0ff0000f          	fence	iorw,iorw
                  max          a4, s6, s4
    11fa:	0b4b6733          	max	x14,x22,x20
                  ori          s2, s8, 1808
    11fe:	710c6913          	ori	x18,x24,1808
                  sext.b       t2, ra
    1202:	60409393          	sext.b	x7,x1
                  sub          t1, s7, s1
    1206:	409b8333          	sub	x6,x23,x9
                  sltiu        t3, a1, 294
    120a:	1265be13          	sltiu	x28,x11,294
                  c.sub        a3, s0
    120e:	8e81                	c.sub	x13,x8
                  fence.i
    1210:	0000100f          	fence.i
                  nop
    1214:	0001                	c.addi	x0,0
                  sh2add       t2, ra, t0
    1216:	2050c3b3          	sh2add	x7,x1,x5
                  sh3add       a5, s8, s0
    121a:	208c67b3          	sh3add	x15,x24,x8
                  bset         s11, a5, t5
    121e:	29e79db3          	bset	x27,x15,x30
                  lui          t1, 343585
    1222:	53e21337          	lui	x6,0x53e21
                  c.slli       s0, 20
    1226:	0452                	c.slli	x8,0x14
                  c.zext.b     a2
    1228:	9e61                	c.zext.b	x12
                  c.sext.h     a3
    122a:	9eed                	c.sext.h	x13
                  c.or         a4, a5
    122c:	8f5d                	c.or	x14,x15
                  bclri        s4, t6, 16
    122e:	490f9a13          	bclri	x20,x31,0x10
                  sub          s7, t5, s9
    1232:	419f0bb3          	sub	x23,x30,x25
                  bseti        s6, ra, 31
    1236:	29f09b13          	bseti	x22,x1,0x1f
                  and          s3, gp, t1
    123a:	0061f9b3          	and	x19,x3,x6
                  orn          tp, ra, a6
    123e:	4100e233          	orn	x4,x1,x16
                  bseti        a1, t3, 18
    1242:	292e1593          	bseti	x11,x28,0x12
                  max          s1, a4, t4
    1246:	0bd764b3          	max	x9,x14,x29
                  csrrc        a4, 0x340, zero
    124a:	34003773          	csrrc	x14,mscratch,x0
                  remu         zero, a4, a5
    124e:	02f77033          	remu	x0,x14,x15
                  andi         t4, s10, 951
    1252:	3b7d7e93          	andi	x29,x26,951
                  srai         s5, a0, 16
    1256:	41055a93          	srai	x21,x10,0x10
                  add          s2, s4, zero
    125a:	000a0933          	add	x18,x20,x0
                  sll          a6, a6, t5
    125e:	01e81833          	sll	x16,x16,x30
                  c.sext.h     a2
    1262:	9e6d                	c.sext.h	x12
                  minu         s2, s2, s5
    1264:	0b595933          	minu	x18,x18,x21
                  c.bnez       s1, 498f
    1268:	e499                	c.bnez	x9,1276 <sub_4_12+0x610>
                  sh3add       s3, s6, gp
    126a:	203b69b3          	sh3add	x19,x22,x3
                  blt          s8, t3, 499f
    126e:	01cc4663          	blt	x24,x28,127a <sub_4_12+0x614>
                  lui          s5, 1047805
    1272:	ffcfdab7          	lui	x21,0xffcfd
498:              csrrw        a2, 0x340, a6
    1276:	34081673          	csrrw	x12,mscratch,x16
499:              c.zext.b     a2
    127a:	9e61                	c.zext.b	x12
                  bgeu         tp, ra, 518f
    127c:	02127d63          	bgeu	x4,x1,12b6 <sub_4_12+0x650>
                  bset         s5, a7, t3
    1280:	29c89ab3          	bset	x21,x17,x28
                  c.srai       s1, 26
    1284:	84e9                	c.srai	x9,0x1a
                  andn         s0, gp, t3
    1286:	41c1f433          	andn	x8,x3,x28
                  rori         zero, t1, 13
    128a:	60d35013          	rori	x0,x6,0xd
                  sra          a4, gp, s1
    128e:	4091d733          	sra	x14,x3,x9
                  or           a7, tp, s5
    1292:	015268b3          	or	x17,x4,x21
                  c.mul        a5, a5
    1296:	9fdd                	c.mul	x15,x15
                  slt          t0, t1, t2
    1298:	007322b3          	slt	x5,x6,x7
                  bclr         s5, a2, s7
    129c:	49761ab3          	bclr	x21,x12,x23
                  bltu         t6, s4, 515f
    12a0:	014fe863          	bltu	x31,x20,12b0 <sub_4_12+0x64a>
                  sh2add       s4, s9, t5
    12a4:	21ecca33          	sh2add	x20,x25,x30
                  c.sub        s1, s0
    12a8:	8c81                	c.sub	x9,x8
                  maxu         t5, t1, s8
    12aa:	0b837f33          	maxu	x30,x6,x24
                  c.zext.b     a5
    12ae:	9fe1                	c.zext.b	x15
515:              c.srli       s0, 20
    12b0:	8051                	c.srli	x8,0x14
                  c.zext.h     s0
    12b2:	9c69                	c.zext.h	x8
                  c.li         a7, 23
    12b4:	48dd                	c.li	x17,23
518:              c.lui        a7, 0xffff2
    12b6:	78c9                	c.lui	x17,0xffff2
                  bne          s2, s2, 536f
    12b8:	05291263          	bne	x18,x18,12fc <sub_4_12+0x696>
                  fence.i
    12bc:	0000100f          	fence.i
                  sra          s11, a7, a4
    12c0:	40e8ddb3          	sra	x27,x17,x14
                  bclri        s9, t6, 24
    12c4:	498f9c93          	bclri	x25,x31,0x18
                  beq          s2, s10, 539f
    12c8:	03a90f63          	beq	x18,x26,1306 <sub_4_12+0x6a0>
                  bclri        s9, s2, 16
    12cc:	49091c93          	bclri	x25,x18,0x10
                  divu         a0, a7, t4
    12d0:	03d8d533          	divu	x10,x17,x29
                  bclr         s11, s10, sp
    12d4:	482d1db3          	bclr	x27,x26,x2
                  ctz          t3, a0
    12d8:	60151e13          	ctz	x28,x10
                  bgeu         a5, s5, 545f
    12dc:	0557f063          	bgeu	x15,x21,131c <sub_4_12+0x6b6>
                  bgeu         s10, s11, 532f
    12e0:	01bd7663          	bgeu	x26,x27,12ec <sub_4_12+0x686>
                  sltu         s7, a1, gp
    12e4:	0035bbb3          	sltu	x23,x11,x3
                  divu         t0, a0, t5
    12e8:	03e552b3          	divu	x5,x10,x30
532:              addi         t3, a0, -709
    12ec:	d3b50e13          	addi	x28,x10,-709
                  xori         gp, t1, 1165
    12f0:	48d34193          	xori	x3,x6,1165
                  rev8         t6, zero
    12f4:	69805f93          	rev8	x31,x0
                  bne          a1, s11, 536f
    12f8:	01b59263          	bne	x11,x27,12fc <sub_4_12+0x696>
536:              sltiu        t2, s4, -551
    12fc:	dd9a3393          	sltiu	x7,x20,-551
                  c.sub        s0, a0
    1300:	8c09                	c.sub	x8,x10
                  clmulr       s7, a0, gp
    1302:	0a352bb3          	clmulr	x23,x10,x3
539:              bge          s7, sp, 550f
    1306:	022bd463          	bge	x23,x2,132e <sub_4_12+0x6c8>
                  sra          t1, a7, s6
    130a:	4168d333          	sra	x6,x17,x22
                  sltu         t5, s11, s7
    130e:	017dbf33          	sltu	x30,x27,x23
                  csrrs        a0, 0x340, t3
    1312:	340e2573          	csrrs	x10,mscratch,x28
                  c.sext.b     a3
    1316:	9ee5                	c.sext.b	x13
                  xor          tp, a2, s9
    1318:	01964233          	xor	x4,x12,x25
545:              c.srai       a2, 3
    131c:	860d                	c.srai	x12,0x3
                  addi         zero, zero, -792
    131e:	ce800013          	addi	x0,x0,-792
                  sltiu        zero, a6, -1167
    1322:	b7183013          	sltiu	x0,x16,-1167
                  mul          t4, s6, s10
    1326:	03ab0eb3          	mul	x29,x22,x26
                  bext         s11, t0, a2
    132a:	48c2ddb3          	bext	x27,x5,x12
550:              c.mul        a3, a1
    132e:	9ecd                	c.mul	x13,x11
                  blt          s1, s4, 565f
    1330:	0344c563          	blt	x9,x20,135a <sub_4_12+0x6f4>
                  clmul        t0, s6, t0
    1334:	0a5b12b3          	clmul	x5,x22,x5
                  c.add        a6, s4
    1338:	9852                	c.add	x16,x20
                  c.or         a5, s0
    133a:	8fc1                	c.or	x15,x8
                  rev8         s7, t2
    133c:	6983db93          	rev8	x23,x7
                  c.zext.h     s0
    1340:	9c69                	c.zext.h	x8
                  c.sext.h     a0
    1342:	9d6d                	c.sext.h	x10
                  c.li         s3, 29
    1344:	49f5                	c.li	x19,29
                  maxu         s7, s2, t2
    1346:	0a797bb3          	maxu	x23,x18,x7
                  xor          s0, a0, t2
    134a:	00754433          	xor	x8,x10,x7
                  div          s11, s6, ra
    134e:	021b4db3          	div	x27,x22,x1
                  andn         gp, s8, a0
    1352:	40ac71b3          	andn	x3,x24,x10
                  c.andi       a4, 4
    1356:	8b11                	c.andi	x14,4
                  c.or         a2, a1
    1358:	8e4d                	c.or	x12,x11
565:              c.srai       a2, 28
    135a:	8671                	c.srai	x12,0x1c
                  bclr         s4, a7, s7
    135c:	49789a33          	bclr	x20,x17,x23
                  clmulr       t4, a3, t3
    1360:	0bc6aeb3          	clmulr	x29,x13,x28
                  ror          a7, sp, t4
    1364:	61d158b3          	ror	x17,x2,x29
                  fence.i
    1368:	0000100f          	fence.i
                  div          s0, ra, t4
    136c:	03d0c433          	div	x8,x1,x29
                  bseti        tp, t6, 1
    1370:	281f9213          	bseti	x4,x31,0x1
                  c.sext.b     a2
    1374:	9e65                	c.sext.b	x12
                  bgeu         gp, tp, 577f
    1376:	0041f863          	bgeu	x3,x4,1386 <sub_4_12+0x720>
                  bge          t1, a2, 581f
    137a:	00c35c63          	bge	x6,x12,1392 <sub_4_12+0x72c>
                  bgeu         t0, t0, 595f
    137e:	0452f263          	bgeu	x5,x5,13c2 <sub_4_12+0x75c>
                  add          a1, s5, s10
    1382:	01aa85b3          	add	x11,x21,x26
577:              orc.b        a0, s1
    1386:	2874d513          	orc.b	x10,x9
                  csrrc        s9, 0x340, s9
    138a:	340cbcf3          	csrrc	x25,mscratch,x25
                  c.sext.h     a5
    138e:	9fed                	c.sext.h	x15
                  c.or         a4, s1
    1390:	8f45                	c.or	x14,x9
581:              auipc        t5, 599287
    1392:	924f7f17          	auipc	x30,0x924f7
                  beq          s11, s1, 595f
    1396:	029d8663          	beq	x27,x9,13c2 <sub_4_12+0x75c>
                  blt          a3, s7, 595f
    139a:	0376c463          	blt	x13,x23,13c2 <sub_4_12+0x75c>
                  c.not        s0
    139e:	9c75                	c.not	x8
                  c.slli       t5, 2
    13a0:	0f0a                	c.slli	x30,0x2
                  c.beqz       s0, 603f
    13a2:	cc05                	c.beqz	x8,13da <sub_4_12+0x774>
                  ori          s0, sp, -1972
    13a4:	84c16413          	ori	x8,x2,-1972
                  c.add        s1, tp
    13a8:	9492                	c.add	x9,x4
                  srl          a1, a7, tp
    13aa:	0048d5b3          	srl	x11,x17,x4
                  slti         a0, ra, 570
    13ae:	23a0a513          	slti	x10,x1,570
                  zext.h       s2, s11
    13b2:	080dc933          	zext.h	x18,x27
                  orc.b        zero, tp
    13b6:	28725013          	orc.b	x0,x4
                  mulh         t4, a1, sp
    13ba:	02259eb3          	mulh	x29,x11,x2
                  mul          a7, a1, ra
    13be:	021588b3          	mul	x17,x11,x1
595:              clmul        s4, s5, s9
    13c2:	0b9a9a33          	clmul	x20,x21,x25
                  c.lui        s6, 18
    13c6:	6b49                	c.lui	x22,0x12
                  srai         t0, a2, 6
    13c8:	40665293          	srai	x5,x12,0x6
                  orn          a4, t5, sp
    13cc:	402f6733          	orn	x14,x30,x2
                  c.li         s2, -1
    13d0:	597d                	c.li	x18,-1
                  c.bnez       a2, 613f
    13d2:	e61d                	c.bnez	x12,1400 <sub_4_12+0x79a>
                  c.li         t4, -1
    13d4:	5efd                	c.li	x29,-1
                  binv         tp, s0, gp
    13d6:	68341233          	binv	x4,x8,x3
603:              fence.i
    13da:	0000100f          	fence.i
                  lui          gp, 1001029
    13de:	f46451b7          	lui	x3,0xf4645
                  xnor         a7, t5, a5
    13e2:	40ff48b3          	xnor	x17,x30,x15
                  srl          s9, s3, a2
    13e6:	00c9dcb3          	srl	x25,x19,x12
                  lui          a3, 515158
    13ea:	7dc566b7          	lui	x13,0x7dc56
                  orn          a5, a5, a3
    13ee:	40d7e7b3          	orn	x15,x15,x13
                  divu         t5, s9, s5
    13f2:	035cdf33          	divu	x30,x25,x21
                  csrrsi       s1, 0x340, 0
    13f6:	340064f3          	csrrsi	x9,mscratch,0
                  c.srai       s1, 10
    13fa:	84a9                	c.srai	x9,0xa
                  maxu         s2, s8, gp
    13fc:	0a3c7933          	maxu	x18,x24,x3
613:              bext         s2, zero, t2
    1400:	48705933          	bext	x18,x0,x7
                  c.lui        t3, 30
    1404:	6e79                	c.lui	x28,0x1e
                  c.or         s1, a5
    1406:	8cdd                	c.or	x9,x15
                  divu         s0, s6, s9
    1408:	039b5433          	divu	x8,x22,x25
                  c.nop
    140c:	0001                	c.addi	x0,0
                  lw           ra, 4(sp)
    140e:	4092                	c.lwsp	x1,4(x2)
                  srl          s5, a3, t0
    1410:	0056dab3          	srl	x21,x13,x5
                  addi         sp, sp, 692
    1414:	2b410113          	addi	x2,x2,692
                  rol          t1, t4, a4
    1418:	60ee9333          	rol	x6,x29,x14
                  slt          t2, s8, s10
    141c:	01ac23b3          	slt	x7,x24,x26
                  csrrc        t4, 0x340, a2
    1420:	34063ef3          	csrrc	x29,mscratch,x12
1214:             addi x12, x1, 1
    1424:	00108613          	addi	x12,x1,1 # 3001 <sub_1_44+0x2d5>
1214:             jalr x12, x12, 0
    1428:	00060667          	jalr	x12,0(x12)

0000142c <sub_3>:
sub_3:            addi         sp, sp, -948
    142c:	c4c10113          	addi	x2,x2,-948
                  sltiu        a0, s1, 1182
    1430:	49e4b513          	sltiu	x10,x9,1182
                  rev8         s11, s11
    1434:	698ddd93          	rev8	x27,x27
                  mulhu        s6, a4, s3
    1438:	03373b33          	mulhu	x22,x14,x19
                  sw           ra, 4(sp)
    143c:	c206                	c.swsp	x1,4(x2)
                  c.lui        s3, 0xfffe7
    143e:	799d                	c.lui	x19,0xfffe7
                  clmul        a6, t3, s2
    1440:	0b2e1833          	clmul	x16,x28,x18
                  sltu         s4, gp, a6
    1444:	0101ba33          	sltu	x20,x3,x16
                  binv         a5, a3, a0 #start corev_zcmp_pushpop_base_stream_3
    1448:	68a697b3          	binv	x15,x13,x10
                  c.mul        a1, s1
    144c:	9dc5                	c.mul	x11,x9
                  orn          a7, s8, t5
    144e:	41ec68b3          	orn	x17,x24,x30
                  ori          a2, t3, 1913
    1452:	779e6613          	ori	x12,x28,1913
                  clz          t6, gp
    1456:	60019f93          	clz	x31,x3
                  c.andi       a4, -1
    145a:	9b7d                	c.andi	x14,-1
                  andi         s2, t0, 69
    145c:	0452f913          	andi	x18,x5,69
                  minu         s9, s6, s11
    1460:	0bbb5cb3          	minu	x25,x22,x27
                  xor          a6, a7, s1
    1464:	0098c833          	xor	x16,x17,x9
                  fence
    1468:	0ff0000f          	fence	iorw,iorw
                  rev8         t5, a5
    146c:	6987df13          	rev8	x30,x15
                  add          t4, t4, a3
    1470:	9eb6                	c.add	x29,x13
                  slli         s7, t2, 13
    1472:	00d39b93          	slli	x23,x7,0xd
                  maxu         a0, s10, tp
    1476:	0a4d7533          	maxu	x10,x26,x4
                  csrrci       t5, 0x340, 25
    147a:	340cff73          	csrrci	x30,mscratch,25
                  andi         t4, s11, 1219
    147e:	4c3dfe93          	andi	x29,x27,1219
                  orn          s3, a2, t2
    1482:	407669b3          	orn	x19,x12,x7
                  lui          s2, 331053
    1486:	50d2d937          	lui	x18,0x50d2d
                  rol          t3, t1, s2
    148a:	61231e33          	rol	x28,x6,x18
                  ctz          tp, ra
    148e:	60109213          	ctz	x4,x1
                  mulhu        a7, s11, a5
    1492:	02fdb8b3          	mulhu	x17,x27,x15
                  divu         t4, tp, a2
    1496:	02c25eb3          	divu	x29,x4,x12
                  max          s0, a5, t3
    149a:	0bc7e433          	max	x8,x15,x28
                  cm.push      {ra, s0-s3}, -80 #start zcmp push pop instr sequence
    149e:	b88e                	cm.push	{x1,x8-x9,x18-x19},-80
                  remu         gp, s0, a5
    14a0:	02f471b3          	remu	x3,x8,x15
                  bset         s2, t5, s6
    14a4:	296f1933          	bset	x18,x30,x22
                  zext.h       s0, gp
    14a8:	0801c433          	zext.h	x8,x3
                  bext         t4, t1, t4
    14ac:	49d35eb3          	bext	x29,x6,x29
                  slt          s1, a0, t3
    14b0:	01c524b3          	slt	x9,x10,x28
                  clmulh       ra, ra, a5
    14b4:	0af0b0b3          	clmulh	x1,x1,x15
                  c.sub        a3, a3
    14b8:	8e95                	c.sub	x13,x13
                  sltiu        s2, s6, 830
    14ba:	33eb3913          	sltiu	x18,x22,830
                  minu         s1, tp, s9
    14be:	0b9254b3          	minu	x9,x4,x25
                  sltu         tp, t5, s5
    14c2:	015f3233          	sltu	x4,x30,x21
                  c.nop
    14c6:	0001                	c.addi	x0,0
                  orc.b        a6, zero
    14c8:	28705813          	orc.b	x16,x0
                  c.srai       s1, 11
    14cc:	84ad                	c.srai	x9,0xb
                  clmul        s1, t3, s10
    14ce:	0bae14b3          	clmul	x9,x28,x26
                  c.add        s0, t4
    14d2:	9476                	c.add	x8,x29
                  sra          s7, s4, s10
    14d4:	41aa5bb3          	sra	x23,x20,x26
                  cm.pop       {ra, s0-s3}, 80 #end corev_zcmp_pushpop_base_stream_3
    14d8:	ba8e                	cm.pop	{x1,x8-x9,x18-x19},80
                  rori         s6, zero, 16 #start corev_zcmp_pushpop_base_stream_4
    14da:	61005b13          	rori	x22,x0,0x10
                  mul          t5, tp, s10
    14de:	03a20f33          	mul	x30,x4,x26
                  csrrci       ra, 0x340, 9
    14e2:	3404f0f3          	csrrci	x1,mscratch,9
                  maxu         t0, a2, t4
    14e6:	0bd672b3          	maxu	x5,x12,x29
                  c.mul        a1, a5
    14ea:	9ddd                	c.mul	x11,x15
                  addi         a1, a3, -841
    14ec:	cb768593          	addi	x11,x13,-841 # 7dc55cb7 <debug_exception+0x63b44cb7>
                  clz          s6, a0
    14f0:	60051b13          	clz	x22,x10
                  cm.push      {ra, s0-s1}, -64 #start zcmp push pop instr sequence
    14f4:	b86e                	cm.push	{x1,x8-x9},-64
                  mul          a3, a7, sp
    14f6:	022886b3          	mul	x13,x17,x2
                  rev8         t1, s2
    14fa:	69895313          	rev8	x6,x18
                  c.nop
    14fe:	0001                	c.addi	x0,0
                  mulhu        gp, a4, t6
    1500:	03f731b3          	mulhu	x3,x14,x31
                  auipc        s1, 415383
    1504:	65697497          	auipc	x9,0x65697
                  c.sub        a3, a4
    1508:	8e99                	c.sub	x13,x14
                  c.xor        a4, s1
    150a:	8f25                	c.xor	x14,x9
                  binvi        s3, sp, 2
    150c:	68211993          	binvi	x19,x2,0x2
                  csrrc        a2, 0x340, a1
    1510:	3405b673          	csrrc	x12,mscratch,x11
                  ori          t2, a2, 1263
    1514:	4ef66393          	ori	x7,x12,1263
                  rori         s9, a0, 0
    1518:	60055c93          	rori	x25,x10,0x0
                  sext.h       s0, a7
    151c:	60589413          	sext.h	x8,x17
                  sext.b       a6, ra
    1520:	60409813          	sext.b	x16,x1
                  divu         tp, a1, a7
    1524:	0315d233          	divu	x4,x11,x17
                  slli         s5, a0, 15
    1528:	00f51a93          	slli	x21,x10,0xf
                  csrrc        t0, 0x340, zero
    152c:	340032f3          	csrrc	x5,mscratch,x0
                  sltiu        a6, t0, 296
    1530:	1282b813          	sltiu	x16,x5,296
                  rol          a3, s10, s5
    1534:	615d16b3          	rol	x13,x26,x21
                  auipc        a3, 85541
    1538:	14e25697          	auipc	x13,0x14e25
                  c.sub        a5, a0
    153c:	8f89                	c.sub	x15,x10
                  c.mul        s1, a1
    153e:	9ccd                	c.mul	x9,x11
                  c.and        a5, a1
    1540:	8fed                	c.and	x15,x11
                  srl          s3, s5, tp
    1542:	004ad9b3          	srl	x19,x21,x4
                  sub          t1, s5, a7
    1546:	411a8333          	sub	x6,x21,x17
                  cpop         t3, t6
    154a:	602f9e13          	cpop	x28,x31
                  clmulr       zero, a7, s10
    154e:	0ba8a033          	clmulr	x0,x17,x26
                  orn          t3, sp, s3
    1552:	41316e33          	orn	x28,x2,x19
                  clz          s2, a1
    1556:	60059913          	clz	x18,x11
                  ctz          s11, t3
    155a:	601e1d93          	ctz	x27,x28
                  div          a1, t1, a6
    155e:	030345b3          	div	x11,x6,x16
                  mulh         s7, s10, t3
    1562:	03cd1bb3          	mulh	x23,x26,x28
                  cm.pop       {ra, s0-s1}, 64 #end corev_zcmp_pushpop_base_stream_4
    1566:	ba6e                	cm.pop	{x1,x8-x9},64
                  c.zext.b     a5 #start corev_zcmp_pushpop_base_stream_0
    1568:	9fe1                	c.zext.b	x15
                  c.addi       t1, 29
    156a:	0375                	c.addi	x6,29 # 53e2101d <debug_exception+0x39d1001d>
                  mulhsu       t3, tp, s2
    156c:	03222e33          	mulhsu	x28,x4,x18
                  c.addi       s3, 15
    1570:	09bd                	c.addi	x19,15 # fffe700f <debug_exception+0xe5ed600f>
                  sh3add       a3, a0, t4
    1572:	21d566b3          	sh3add	x13,x10,x29
                  slli         t5, s6, 16
    1576:	010b1f13          	slli	x30,x22,0x10
                  c.addi       s4, -1
    157a:	1a7d                	c.addi	x20,-1
                  cm.push      {ra, s0}, -64 #start zcmp push pop instr sequence
    157c:	b85e                	cm.push	{x1,x8},-64
                  cm.pop       {ra, s0}, 64 #end corev_zcmp_pushpop_base_stream_0
    157e:	ba5e                	cm.pop	{x1,x8},64

00001580 <sub_3_6>:
sub_3_6:          jal          ra, 4f
    1580:	00e000ef          	jal	x1,158e <sub_3_6+0xe>
0:                c.j          3f
    1584:	a019                	c.j	158a <sub_3_6+0xa>
1:                c.j          5f
    1586:	a031                	c.j	1592 <sub_3_6+0x12>
2:                c.j          7f
    1588:	a801                	c.j	1598 <sub_3_6+0x18>
3:                jal          ra, 8f
    158a:	010000ef          	jal	x1,159a <sub_3_6+0x1a>
4:                jal          ra, 2b
    158e:	ffbff0ef          	jal	x1,1588 <sub_3_6+0x8>
5:                jal          a0, 9f
    1592:	00c0056f          	jal	x10,159e <sub_3_6+0x1e>
6:                c.j          10f
    1596:	a029                	c.j	15a0 <sub_3_6+0x20>
7:                c.jal        0b
    1598:	37f5                	c.jal	1584 <sub_3_6+0x4>
8:                jal          t1, 1b
    159a:	fedff36f          	jal	x6,1586 <sub_3_6+0x6>
9:                c.j          6b
    159e:	bfe5                	c.j	1596 <sub_3_6+0x16>
10:               rori         a4, a2, 26
    15a0:	61a65713          	rori	x14,x12,0x1a

000015a4 <sub_3_11>:
sub_3_11:         jal          ra, 11f
    15a4:	01a000ef          	jal	x1,15be <sub_3_11+0x1a>
0:                c.jal        10f
    15a8:	2811                	c.jal	15bc <sub_3_11+0x18>
1:                c.jal        2f
    15aa:	2009                	c.jal	15ac <sub_3_11+0x8>
2:                c.jal        6f
    15ac:	2021                	c.jal	15b4 <sub_3_11+0x10>
3:                c.jal        16f
    15ae:	2831                	c.jal	15ca <sub_3_11+0x26>
4:                c.jal        5f
    15b0:	2009                	c.jal	15b2 <sub_3_11+0xe>
5:                c.j          14f
    15b2:	a811                	c.j	15c6 <sub_3_11+0x22>
6:                c.jal        15f
    15b4:	2811                	c.jal	15c8 <sub_3_11+0x24>
7:                c.jal        13f
    15b6:	2031                	c.jal	15c2 <sub_3_11+0x1e>
8:                c.jal        7b
    15b8:	3ffd                	c.jal	15b6 <sub_3_11+0x12>
9:                c.j          3b
    15ba:	bfd5                	c.j	15ae <sub_3_11+0xa>
10:               c.j          12f
    15bc:	a011                	c.j	15c0 <sub_3_11+0x1c>
11:               c.j          1b
    15be:	b7f5                	c.j	15aa <sub_3_11+0x6>
12:               c.j          8b
    15c0:	bfe5                	c.j	15b8 <sub_3_11+0x14>
13:               jal          s3, 4b
    15c2:	fefff9ef          	jal	x19,15b0 <sub_3_11+0xc>
14:               c.jal        17f
    15c6:	2019                	c.jal	15cc <sub_3_11+0x28>
15:               c.jal        9b
    15c8:	3fcd                	c.jal	15ba <sub_3_11+0x16>
16:               c.j          0b
    15ca:	bff9                	c.j	15a8 <sub_3_11+0x4>
17:               remu         s2, s6, s4
    15cc:	034b7933          	remu	x18,x22,x20

000015d0 <sub_3_8>:
sub_3_8:          jal          ra, 4f
    15d0:	00e000ef          	jal	x1,15de <sub_3_8+0xe>
0:                c.j          2f
    15d4:	a011                	c.j	15d8 <sub_3_8+0x8>
1:                c.j          8f
    15d6:	a801                	c.j	15e6 <sub_3_8+0x16>
2:                jal          t1, 23f
    15d8:	0340036f          	jal	x6,160c <sub_3_8+0x3c>
3:                c.j          13f
    15dc:	a821                	c.j	15f4 <sub_3_8+0x24>
4:                c.j          1b
    15de:	bfe5                	c.j	15d6 <sub_3_8+0x6>
5:                c.jal        20f
    15e0:	201d                	c.jal	1606 <sub_3_8+0x36>
6:                c.j          11f
    15e2:	a039                	c.j	15f0 <sub_3_8+0x20>
7:                c.j          10f
    15e4:	a029                	c.j	15ee <sub_3_8+0x1e>
8:                jal          ra, 22f
    15e6:	024000ef          	jal	x1,160a <sub_3_8+0x3a>
9:                jal          t1, 18f
    15ea:	0180036f          	jal	x6,1602 <sub_3_8+0x32>
10:               c.jal        21f
    15ee:	2829                	c.jal	1608 <sub_3_8+0x38>
11:               c.jal        24f
    15f0:	2839                	c.jal	160e <sub_3_8+0x3e>
12:               c.jal        14f
    15f2:	2011                	c.jal	15f6 <sub_3_8+0x26>
13:               c.j          25f
    15f4:	a831                	c.j	1610 <sub_3_8+0x40>
14:               jal          t5, 26f
    15f6:	01e00f6f          	jal	x30,1614 <sub_3_8+0x44>
15:               c.jal        7b
    15fa:	37ed                	c.jal	15e4 <sub_3_8+0x14>
16:               jal          a4, 17f
    15fc:	0040076f          	jal	x14,1600 <sub_3_8+0x30>
17:               c.j          12b
    1600:	bfcd                	c.j	15f2 <sub_3_8+0x22>
18:               c.j          3b
    1602:	bfe9                	c.j	15dc <sub_3_8+0xc>
19:               c.jal        6b
    1604:	3ff9                	c.jal	15e2 <sub_3_8+0x12>
20:               c.j          19b
    1606:	bffd                	c.j	1604 <sub_3_8+0x34>
21:               c.j          9b
    1608:	b7cd                	c.j	15ea <sub_3_8+0x1a>
22:               c.jal        0b
    160a:	37e9                	c.jal	15d4 <sub_3_8+0x4>
23:               c.j          15b
    160c:	b7fd                	c.j	15fa <sub_3_8+0x2a>
24:               c.j          16b
    160e:	b7fd                	c.j	15fc <sub_3_8+0x2c>
25:               jal          t0, 5b
    1610:	fd1ff2ef          	jal	x5,15e0 <sub_3_8+0x10>
26:               addi         s7, tp, -1278
    1614:	b0220b93          	addi	x23,x4,-1278 # fffffb02 <debug_exception+0xe5eeeb02>
                  clz          t4, t2 #start corev_zcmp_pushpop_base_stream_2
    1618:	60039e93          	clz	x29,x7
                  c.sext.h     s1
    161c:	9ced                	c.sext.h	x9
                  sltiu        s9, a7, -1440
    161e:	a608bc93          	sltiu	x25,x17,-1440
                  divu         tp, t1, ra
    1622:	02135233          	divu	x4,x6,x1
                  c.sext.b     a2
    1626:	9e65                	c.sext.b	x12
                  srli         tp, ra, 18
    1628:	0120d213          	srli	x4,x1,0x12
                  mulhu        a0, t4, a4
    162c:	02eeb533          	mulhu	x10,x29,x14
                  c.not        s0
    1630:	9c75                	c.not	x8
                  c.sext.b     a5
    1632:	9fe5                	c.sext.b	x15
                  bext         s3, t0, s11
    1634:	49b2d9b3          	bext	x19,x5,x27
                  rev8         t2, s11
    1638:	698dd393          	rev8	x7,x27
                  slti         s6, s1, -219
    163c:	f254ab13          	slti	x22,x9,-219
                  c.slli       t0, 20
    1640:	02d2                	c.slli	x5,0x14
                  sra          a3, zero, a3
    1642:	40d056b3          	sra	x13,x0,x13
                  binv         a1, gp, a4
    1646:	68e195b3          	binv	x11,x3,x14
                  c.nop
    164a:	0001                	c.addi	x0,0
                  zext.h       s4, sp
    164c:	08014a33          	zext.h	x20,x2
                  sltiu        t4, a6, 194
    1650:	0c283e93          	sltiu	x29,x16,194
                  sext.b       t2, s8
    1654:	604c1393          	sext.b	x7,x24
                  csrrw        s0, 0x340, t5
    1658:	340f1473          	csrrw	x8,mscratch,x30
                  and          a6, a5, s1
    165c:	0097f833          	and	x16,x15,x9
                  max          t5, ra, a6
    1660:	0b00ef33          	max	x30,x1,x16
                  xnor         t3, t4, gp
    1664:	403ece33          	xnor	x28,x29,x3
                  min          ra, s2, s5
    1668:	0b5940b3          	min	x1,x18,x21
                  rev8         s4, a6
    166c:	69885a13          	rev8	x20,x16
                  binv         s3, t0, s8
    1670:	698299b3          	binv	x19,x5,x24
                  csrrwi       zero, 0x340, 4
    1674:	34025073          	csrrwi	x0,mscratch,4
                  sll          a6, zero, t1
    1678:	00601833          	sll	x16,x0,x6
                  mulhsu       t0, s1, a5
    167c:	02f4a2b3          	mulhsu	x5,x9,x15
                  slli         a0, t1, 5
    1680:	00531513          	slli	x10,x6,0x5
                  cm.push      {ra, s0}, -64 #start zcmp push pop instr sequence
    1684:	b85e                	cm.push	{x1,x8},-64
                  fence
    1686:	0ff0000f          	fence	iorw,iorw
                  ori          a4, s4, -171
    168a:	f55a6713          	ori	x14,x20,-171
                  cm.pop       {ra, s0}, 64 #end corev_zcmp_pushpop_base_stream_2
    168e:	ba5e                	cm.pop	{x1,x8},64

00001690 <sub_3_10>:
sub_3_10:         jal          ra, 9f
    1690:	01e000ef          	jal	x1,16ae <sub_3_10+0x1e>
0:                jal          t0, 14f
    1694:	026002ef          	jal	x5,16ba <sub_3_10+0x2a>
1:                jal          a2, 6f
    1698:	00c0066f          	jal	x12,16a4 <sub_3_10+0x14>
2:                c.j          16f
    169c:	a00d                	c.j	16be <sub_3_10+0x2e>
3:                c.jal        17f
    169e:	2015                	c.jal	16c2 <sub_3_10+0x32>
4:                c.jal        12f
    16a0:	2819                	c.jal	16b6 <sub_3_10+0x26>
5:                c.j          1b
    16a2:	bfdd                	c.j	1698 <sub_3_10+0x8>
6:                c.j          19f
    16a4:	a00d                	c.j	16c6 <sub_3_10+0x36>
7:                jal          ra, 13f
    16a6:	012000ef          	jal	x1,16b8 <sub_3_10+0x28>
8:                jal          ra, 23f
    16aa:	026000ef          	jal	x1,16d0 <sub_3_10+0x40>
9:                jal          ra, 10f
    16ae:	004000ef          	jal	x1,16b2 <sub_3_10+0x22>
10:               c.jal        3b
    16b2:	37f5                	c.jal	169e <sub_3_10+0xe>
11:               c.jal        2b
    16b4:	37e5                	c.jal	169c <sub_3_10+0xc>
12:               c.jal        7b
    16b6:	3fc5                	c.jal	16a6 <sub_3_10+0x16>
13:               c.jal        11b
    16b8:	3ff5                	c.jal	16b4 <sub_3_10+0x24>
14:               c.j          20f
    16ba:	a039                	c.j	16c8 <sub_3_10+0x38>
15:               c.j          5b
    16bc:	b7dd                	c.j	16a2 <sub_3_10+0x12>
16:               jal          ra, 18f
    16be:	006000ef          	jal	x1,16c4 <sub_3_10+0x34>
17:               c.jal        21f
    16c2:	2029                	c.jal	16cc <sub_3_10+0x3c>
18:               c.j          15b
    16c4:	bfe5                	c.j	16bc <sub_3_10+0x2c>
19:               c.jal        0b
    16c6:	37f9                	c.jal	1694 <sub_3_10+0x4>
20:               jal          a1, 22f
    16c8:	006005ef          	jal	x11,16ce <sub_3_10+0x3e>
21:               c.j          4b
    16cc:	bfd1                	c.j	16a0 <sub_3_10+0x10>
22:               c.jal        8b
    16ce:	3ff1                	c.jal	16aa <sub_3_10+0x1a>
23:               c.xor        a1, s0
    16d0:	8da1                	c.xor	x11,x8

000016d2 <sub_3_7>:
sub_3_7:          jal          ra, 1f
    16d2:	006000ef          	jal	x1,16d8 <sub_3_7+0x6>
0:                c.jal        12f
    16d6:	200d                	c.jal	16f8 <sub_3_7+0x26>
1:                jal          ra, 13f
    16d8:	022000ef          	jal	x1,16fa <sub_3_7+0x28>
2:                c.j          11f
    16dc:	a829                	c.j	16f6 <sub_3_7+0x24>
3:                c.jal        14f
    16de:	2005                	c.jal	16fe <sub_3_7+0x2c>
4:                jal          t0, 15f
    16e0:	022002ef          	jal	x5,1702 <sub_3_7+0x30>
5:                jal          t1, 10f
    16e4:	0100036f          	jal	x6,16f4 <sub_3_7+0x22>
6:                c.j          5b
    16e8:	bff5                	c.j	16e4 <sub_3_7+0x12>
7:                jal          ra, 6b
    16ea:	fffff0ef          	jal	x1,16e8 <sub_3_7+0x16>
8:                jal          ra, 4b
    16ee:	ff3ff0ef          	jal	x1,16e0 <sub_3_7+0xe>
9:                c.jal        8b
    16f2:	3ff5                	c.jal	16ee <sub_3_7+0x1c>
10:               c.j          9b
    16f4:	bffd                	c.j	16f2 <sub_3_7+0x20>
11:               c.jal        0b
    16f6:	37c5                	c.jal	16d6 <sub_3_7+0x4>
12:               c.j          3b
    16f8:	b7dd                	c.j	16de <sub_3_7+0xc>
13:               jal          tp, 2b
    16fa:	fe3ff26f          	jal	x4,16dc <sub_3_7+0xa>
14:               jal          ra, 7b
    16fe:	fedff0ef          	jal	x1,16ea <sub_3_7+0x18>
15:               c.li         a3, -1
    1702:	56fd                	c.li	x13,-1
                  xnor         a2, s0, a7 #start corev_zcmp_pushpop_base_stream_5
    1704:	41144633          	xnor	x12,x8,x17
                  lui          t6, 804818
    1708:	c47d2fb7          	lui	x31,0xc47d2
                  zext.h       s7, a3
    170c:	0806cbb3          	zext.h	x23,x13
                  or           a6, s9, s5
    1710:	015ce833          	or	x16,x25,x21
                  sltu         s11, tp, zero
    1714:	00023db3          	sltu	x27,x4,x0
                  clz          t1, a3
    1718:	60069313          	clz	x6,x13
                  mul          s0, s2, s3
    171c:	03390433          	mul	x8,x18,x19
                  cm.push      {ra, s0-s5}, -80 #start zcmp push pop instr sequence
    1720:	b8ae                	cm.push	{x1,x8-x9,x18-x21},-80
                  cm.pop       {ra, s0-s5}, 80 #end corev_zcmp_pushpop_base_stream_5
    1722:	baae                	cm.pop	{x1,x8-x9,x18-x21},80
                  rori         s1, t4, 0 #start corev_zcmp_pushpop_base_stream_1
    1724:	600ed493          	rori	x9,x29,0x0
                  csrrw        zero, 0x340, a2
    1728:	34061073          	csrrw	x0,mscratch,x12
                  c.sub        a2, s0
    172c:	8e01                	c.sub	x12,x8
                  c.xor        a1, a3
    172e:	8db5                	c.xor	x11,x13
                  xnor         s4, t4, s6
    1730:	416eca33          	xnor	x20,x29,x22
                  c.xor        a1, a5
    1734:	8dbd                	c.xor	x11,x15
                  clz          a2, t6
    1736:	600f9613          	clz	x12,x31
                  sh3add       s9, zero, t1
    173a:	20606cb3          	sh3add	x25,x0,x6
                  c.addi       gp, 28
    173e:	01f1                	c.addi	x3,28 # f464501c <debug_exception+0xda53401c>
                  fence.i
    1740:	0000100f          	fence.i
                  c.zext.h     a3
    1744:	9ee9                	c.zext.h	x13
                  max          t0, a4, s2
    1746:	0b2762b3          	max	x5,x14,x18
                  andi         gp, s6, -1698
    174a:	95eb7193          	andi	x3,x22,-1698
                  xnor         s4, a2, a3
    174e:	40d64a33          	xnor	x20,x12,x13
                  addi         zero, gp, -654
    1752:	d7218013          	addi	x0,x3,-654 # 3147a <kernel_instr_start+0x33f2>
                  c.srli       s0, 16
    1756:	8041                	c.srli	x8,0x10
                  c.slli       t1, 6
    1758:	031a                	c.slli	x6,0x6
                  c.srai       s1, 20
    175a:	84d1                	c.srai	x9,0x14
                  srai         t0, a3, 16
    175c:	4106d293          	srai	x5,x13,0x10
                  addi         gp, ra, 991
    1760:	3df08193          	addi	x3,x1,991
                  zext.h       a0, a7
    1764:	0808c533          	zext.h	x10,x17
                  c.sext.h     a4
    1768:	9f6d                	c.sext.h	x14
                  orc.b        a4, zero
    176a:	28705713          	orc.b	x14,x0
                  sll          ra, s6, s4
    176e:	014b10b3          	sll	x1,x22,x20
                  zext.h       a5, gp
    1772:	0801c7b3          	zext.h	x15,x3
                  ror          s4, t1, t5
    1776:	61e35a33          	ror	x20,x6,x30
                  binvi        a6, s11, 22
    177a:	696d9813          	binvi	x16,x27,0x16
                  cm.push      {ra, s0-s5}, -80 #start zcmp push pop instr sequence
    177e:	b8ae                	cm.push	{x1,x8-x9,x18-x21},-80
                  cm.pop       {ra, s0-s5}, 80 #end corev_zcmp_pushpop_base_stream_1
    1780:	baae                	cm.pop	{x1,x8-x9,x18-x21},80
                  bgeu         a4, a4, 6f
    1782:	00e77b63          	bgeu	x14,x14,1798 <sub_3_7+0xc6>
                  c.or         a5, a2
    1786:	8fd1                	c.or	x15,x12
                  or           s5, s5, t5
    1788:	01eaeab3          	or	x21,x21,x30
                  srli         s0, s10, 29
    178c:	01dd5413          	srli	x8,x26,0x1d
                  clmulh       s1, a5, s9
    1790:	0b97b4b3          	clmulh	x9,x15,x25
                  bge          s5, s1, 10f
    1794:	009ada63          	bge	x21,x9,17a8 <sub_3_7+0xd6>
6:                zext.h       s1, s0
    1798:	080444b3          	zext.h	x9,x8
                  rori         s3, t3, 1
    179c:	601e5993          	rori	x19,x28,0x1
                  slli         s2, a7, 31
    17a0:	01f89913          	slli	x18,x17,0x1f
                  fence
    17a4:	0ff0000f          	fence	iorw,iorw
10:               auipc        s11, 13359
    17a8:	0342fd97          	auipc	x27,0x342f
                  binv         gp, s10, t5
    17ac:	69ed11b3          	binv	x3,x26,x30
                  srli         a3, a3, 22
    17b0:	82d9                	c.srli	x13,0x16
                  add          tp, s5, s3
    17b2:	013a8233          	add	x4,x21,x19
                  xori         s1, s6, -435
    17b6:	e4db4493          	xori	x9,x22,-435
                  c.lui        a1, 29
    17ba:	65f5                	c.lui	x11,0x1d
                  bltu         s8, a3, 26f
    17bc:	02dc6263          	bltu	x24,x13,17e0 <sub_3_7+0x10e>
                  mulhu        t3, a6, s4
    17c0:	03483e33          	mulhu	x28,x16,x20
                  c.bnez       a1, 35f
    17c4:	ed95                	c.bnez	x11,1800 <sub_3_7+0x12e>
                  clmulh       a1, zero, s1
    17c6:	0a9035b3          	clmulh	x11,x0,x9
                  lui          gp, 908025
    17ca:	ddaf91b7          	lui	x3,0xddaf9
                  c.srai       a2, 6
    17ce:	8619                	c.srai	x12,0x6
                  rol          s2, ra, s2
    17d0:	61209933          	rol	x18,x1,x18
                  csrrw        s7, 0x340, t5
    17d4:	340f1bf3          	csrrw	x23,mscratch,x30
                  mulhu        t0, t6, t6
    17d8:	03ffb2b3          	mulhu	x5,x31,x31
                  sh3add       t0, t6, s9
    17dc:	219fe2b3          	sh3add	x5,x31,x25
26:               div          t5, t5, ra
    17e0:	021f4f33          	div	x30,x30,x1
                  c.beqz       a4, 44f
    17e4:	cf15                	c.beqz	x14,1820 <sub_3_7+0x14e>
                  fence.i
    17e6:	0000100f          	fence.i
                  bltu         s0, s4, 48f
    17ea:	05446263          	bltu	x8,x20,182e <sub_3_7+0x15c>
                  bne          tp, t3, 38f
    17ee:	01c21f63          	bne	x4,x28,180c <sub_3_7+0x13a>
                  lui          t1, 791192
    17f2:	c1298337          	lui	x6,0xc1298
                  cpop         s1, a0
    17f6:	60251493          	cpop	x9,x10
                  c.mv         a1, s9
    17fa:	85e6                	c.mv	x11,x25
                  srli         s9, a0, 24
    17fc:	01855c93          	srli	x25,x10,0x18
35:               beq          t5, a6, 50f
    1800:	030f0b63          	beq	x30,x16,1836 <sub_3_7+0x164>
                  or           a3, a6, a5
    1804:	00f866b3          	or	x13,x16,x15
                  ori          t4, sp, 1266
    1808:	4f216e93          	ori	x29,x2,1266
38:               c.bnez       a2, 52f
    180c:	ea0d                	c.bnez	x12,183e <sub_3_7+0x16c>
                  bexti        t3, a5, 3
    180e:	4837de13          	bexti	x28,x15,0x3
                  bne          s10, t4, 51f
    1812:	03dd1463          	bne	x26,x29,183a <sub_3_7+0x168>
                  srli         a0, a6, 4
    1816:	00485513          	srli	x10,x16,0x4
                  bge          sp, gp, 47f
    181a:	00315863          	bge	x2,x3,182a <sub_3_7+0x158>
                  c.xor        s1, a0
    181e:	8ca9                	c.xor	x9,x10
44:               c.li         ra, -1
    1820:	50fd                	c.li	x1,-1
                  clmul        a7, a1, s10
    1822:	0ba598b3          	clmul	x17,x11,x26
                  bltu         tp, t4, 61f
    1826:	03d26a63          	bltu	x4,x29,185a <sub_3_7+0x188>
47:               binv         s4, s7, a5
    182a:	68fb9a33          	binv	x20,x23,x15
48:               minu         s2, a6, s9
    182e:	0b985933          	minu	x18,x16,x25
                  zext.h       s5, a1
    1832:	0805cab3          	zext.h	x21,x11
50:               beq          a1, sp, 68f
    1836:	02258d63          	beq	x11,x2,1870 <sub_3_7+0x19e>
51:               xor          s1, a2, a1
    183a:	00b644b3          	xor	x9,x12,x11
52:               mulh         gp, s5, a6
    183e:	030a91b3          	mulh	x3,x21,x16
                  c.li         a1, -1
    1842:	55fd                	c.li	x11,-1
                  ror          zero, s2, s0
    1844:	60895033          	ror	x0,x18,x8
                  c.bnez       a5, 75f
    1848:	e3b1                	c.bnez	x15,188c <sub_3_7+0x1ba>
                  beq          t6, gp, 60f
    184a:	003f8663          	beq	x31,x3,1856 <sub_3_7+0x184>
                  c.lui        s1, 0xffff3
    184e:	74cd                	c.lui	x9,0xffff3
                  c.zext.h     a4
    1850:	9f69                	c.zext.h	x14
                  rori         s0, s8, 2
    1852:	602c5413          	rori	x8,x24,0x2
60:               mulhsu       t6, a6, zero
    1856:	02082fb3          	mulhsu	x31,x16,x0
61:               xnor         s7, a2, t1
    185a:	40664bb3          	xnor	x23,x12,x6
                  c.xor        a3, s0
    185e:	8ea1                	c.xor	x13,x8
                  c.zext.b     a2
    1860:	9e61                	c.zext.b	x12
                  c.beqz       a2, 78f
    1862:	ca15                	c.beqz	x12,1896 <sub_3_7+0x1c4>
                  clmulh       s6, t4, t4
    1864:	0bdebb33          	clmulh	x22,x29,x29
                  bgeu         s10, t5, 67f
    1868:	01ed7263          	bgeu	x26,x30,186c <sub_3_7+0x19a>
67:               rol          s0, s2, a4
    186c:	60e91433          	rol	x8,x18,x14
68:               mul          t1, a6, t1
    1870:	02680333          	mul	x6,x16,x6
                  csrrs        a4, 0x340, a6
    1874:	34082773          	csrrs	x14,mscratch,x16
                  csrrwi       s6, 0x340, 0
    1878:	34005b73          	csrrwi	x22,mscratch,0
                  sh3add       t5, t6, t6
    187c:	21ffef33          	sh3add	x30,x31,x31
                  bne          a0, tp, 82f
    1880:	02451263          	bne	x10,x4,18a4 <sub_3_7+0x1d2>
                  srl          ra, s0, s6
    1884:	016450b3          	srl	x1,x8,x22
                  add          a6, s4, ra
    1888:	001a0833          	add	x16,x20,x1
75:               lui          a6, 1032189
    188c:	fbffd837          	lui	x16,0xfbffd
                  csrrs        a2, 0x340, t3
    1890:	340e2673          	csrrs	x12,mscratch,x28
                  c.zext.b     a3
    1894:	9ee1                	c.zext.b	x13
78:               max          ra, s4, s10
    1896:	0baa60b3          	max	x1,x20,x26
                  slli         t1, s11, 0
    189a:	000d9313          	slli	x6,x27,0x0
                  c.mul        a4, s0
    189e:	9f41                	c.mul	x14,x8
                  bclri        s5, a0, 30
    18a0:	49e51a93          	bclri	x21,x10,0x1e
82:               or           a0, s0, s10
    18a4:	01a46533          	or	x10,x8,x26
                  clz          t2, a5
    18a8:	60079393          	clz	x7,x15
                  c.beqz       a1, 89f
    18ac:	c981                	c.beqz	x11,18bc <sub_3_7+0x1ea>
                  c.andi       a3, -1
    18ae:	9afd                	c.andi	x13,-1
                  mulhu        tp, s8, s3
    18b0:	033c3233          	mulhu	x4,x24,x19
                  sext.h       a5, t5
    18b4:	605f1793          	sext.h	x15,x30
                  mulhu        t2, t4, a2
    18b8:	02ceb3b3          	mulhu	x7,x29,x12
89:               bge          s9, gp, 101f
    18bc:	023cd663          	bge	x25,x3,18e8 <sub_3_7+0x216>
                  c.sext.h     a1
    18c0:	9ded                	c.sext.h	x11
                  rol          a2, t6, gp
    18c2:	603f9633          	rol	x12,x31,x3
                  binvi        t0, t4, 24
    18c6:	698e9293          	binvi	x5,x29,0x18
                  remu         s2, tp, a5
    18ca:	02f27933          	remu	x18,x4,x15
                  c.li         a6, 29
    18ce:	4875                	c.li	x16,29
                  xor          s0, ra, t5
    18d0:	01e0c433          	xor	x8,x1,x30
                  srli         t3, a7, 18
    18d4:	0128de13          	srli	x28,x17,0x12
                  mulh         ra, s6, t5
    18d8:	03eb10b3          	mulh	x1,x22,x30
                  bclr         a0, s5, a4
    18dc:	48ea9533          	bclr	x10,x21,x14
                  clmul        tp, s10, s4
    18e0:	0b4d1233          	clmul	x4,x26,x20
                  clmulh       ra, t1, s11
    18e4:	0bb330b3          	clmulh	x1,x6,x27
101:              minu         s4, s4, t0
    18e8:	0a5a5a33          	minu	x20,x20,x5
                  srl          s9, tp, a5
    18ec:	00f25cb3          	srl	x25,x4,x15
                  minu         s0, s3, s4
    18f0:	0b49d433          	minu	x8,x19,x20
                  slli         t5, t5, 18
    18f4:	0f4a                	c.slli	x30,0x12
                  auipc        a7, 366113
    18f6:	59621897          	auipc	x17,0x59621
                  addi         s9, t2, 1430
    18fa:	59638c93          	addi	x25,x7,1430 # 2ef754d0 <debug_exception+0x14e644d0>
                  divu         ra, s1, s4
    18fe:	0344d0b3          	divu	x1,x9,x20
                  srl          s2, t2, zero
    1902:	0003d933          	srl	x18,x7,x0
                  max          zero, s7, t3
    1906:	0bcbe033          	max	x0,x23,x28
                  clmulh       t3, tp, a0
    190a:	0aa23e33          	clmulh	x28,x4,x10
                  sext.h       a3, t6
    190e:	605f9693          	sext.h	x13,x31

00001912 <sub_3_9>:
sub_3_9:          jal          ra, 21f
    1912:	040000ef          	jal	x1,1952 <sub_3_9+0x40>
0:                c.j          2f
    1916:	a019                	c.j	191c <sub_3_9+0xa>
1:                jal          s0, 16f
    1918:	02c0046f          	jal	x8,1944 <sub_3_9+0x32>
2:                c.j          9f
    191c:	a819                	c.j	1932 <sub_3_9+0x20>
3:                jal          t1, 22f
    191e:	0380036f          	jal	x6,1956 <sub_3_9+0x44>
4:                jal          ra, 27f
    1922:	03e000ef          	jal	x1,1960 <sub_3_9+0x4e>
5:                c.j          18f
    1926:	a015                	c.j	194a <sub_3_9+0x38>
6:                c.j          14f
    1928:	a819                	c.j	193e <sub_3_9+0x2c>
7:                jal          ra, 24f
    192a:	030000ef          	jal	x1,195a <sub_3_9+0x48>
8:                jal          ra, 25f
    192e:	02e000ef          	jal	x1,195c <sub_3_9+0x4a>
9:                c.j          8b
    1932:	bff5                	c.j	192e <sub_3_9+0x1c>
10:               c.j          15f
    1934:	a031                	c.j	1940 <sub_3_9+0x2e>
11:               jal          t1, 10b
    1936:	fffff36f          	jal	x6,1934 <sub_3_9+0x22>
12:               c.jal        11b
    193a:	3ff5                	c.jal	1936 <sub_3_9+0x24>
13:               c.jal        19f
    193c:	2801                	c.jal	194c <sub_3_9+0x3a>
14:               c.j          26f
    193e:	a005                	c.j	195e <sub_3_9+0x4c>
15:               jal          a6, 4b
    1940:	fe3ff86f          	jal	x16,1922 <sub_3_9+0x10>
16:               c.jal        23f
    1944:	2811                	c.jal	1958 <sub_3_9+0x46>
17:               jal          t1, 13b
    1946:	ff7ff36f          	jal	x6,193c <sub_3_9+0x2a>
18:               c.j          6b
    194a:	bff9                	c.j	1928 <sub_3_9+0x16>
19:               jal          ra, 1b
    194c:	fcdff0ef          	jal	x1,1918 <sub_3_9+0x6>
20:               c.jal        3b
    1950:	37f9                	c.jal	191e <sub_3_9+0xc>
21:               jal          a5, 5b
    1952:	fd5ff7ef          	jal	x15,1926 <sub_3_9+0x14>
22:               c.jal        12b
    1956:	37d5                	c.jal	193a <sub_3_9+0x28>
23:               c.j          7b
    1958:	bfc9                	c.j	192a <sub_3_9+0x18>
24:               c.j          20b
    195a:	bfdd                	c.j	1950 <sub_3_9+0x3e>
25:               c.j          17b
    195c:	b7ed                	c.j	1946 <sub_3_9+0x34>
26:               c.jal        0b
    195e:	3f65                	c.jal	1916 <sub_3_9+0x4>
27:               rori         t3, a3, 6
    1960:	6066de13          	rori	x28,x13,0x6
                  csrrs        s3, 0x340, zero
    1964:	340029f3          	csrrs	x19,mscratch,x0
                  add          a6, sp, t5
    1968:	01e10833          	add	x16,x2,x30
                  and          s9, s8, t3
    196c:	01cc7cb3          	and	x25,x24,x28
                  addi         a2, s5, 478
    1970:	1dea8613          	addi	x12,x21,478 # ffcfd1de <debug_exception+0xe5bec1de>
                  rev8         a6, s7
    1974:	698bd813          	rev8	x16,x23
                  blt          s1, s10, 136f
    1978:	05a4c163          	blt	x9,x26,19ba <sub_3_9+0xa8>
                  c.sub        s1, a5
    197c:	8c9d                	c.sub	x9,x15
                  c.add        s4, s10
    197e:	9a6a                	c.add	x20,x26
                  sra          s5, s11, ra
    1980:	401ddab3          	sra	x21,x27,x1
                  c.addi       s3, -1
    1984:	19fd                	c.addi	x19,-1
                  remu         s2, tp, s5
    1986:	03527933          	remu	x18,x4,x21
                  addi         s4, t1, -1941
    198a:	86b30a13          	addi	x20,x6,-1941 # c129786b <debug_exception+0xa718686b>
                  c.sext.h     s1
    198e:	9ced                	c.sext.h	x9
                  sh3add       a1, t1, s10
    1990:	21a365b3          	sh3add	x11,x6,x26
                  mulhsu       a0, ra, s10
    1994:	03a0a533          	mulhsu	x10,x1,x26
                  maxu         s7, ra, s6
    1998:	0b60fbb3          	maxu	x23,x1,x22
                  c.sub        a3, s0
    199c:	8e81                	c.sub	x13,x8
                  ori          t5, t2, -176
    199e:	f503ef13          	ori	x30,x7,-176
                  bseti        t4, s3, 3
    19a2:	28399e93          	bseti	x29,x19,0x3
                  csrrsi       a5, 0x340, 17
    19a6:	3408e7f3          	csrrsi	x15,mscratch,17
                  rori         s11, s10, 18
    19aa:	612d5d93          	rori	x27,x26,0x12
                  zext.h       t0, s5
    19ae:	080ac2b3          	zext.h	x5,x21
                  xnor         s4, s6, s10
    19b2:	41ab4a33          	xnor	x20,x22,x26
                  blt          t0, t5, 152f
    19b6:	03e2cf63          	blt	x5,x30,19f4 <sub_3_9+0xe2>
136:              sh1add       t3, s11, s0
    19ba:	208dae33          	sh1add	x28,x27,x8
                  sh3add       ra, a2, s0
    19be:	208660b3          	sh3add	x1,x12,x8
                  csrrc        s2, 0x340, zero
    19c2:	34003973          	csrrc	x18,mscratch,x0
                  min          a0, a1, sp
    19c6:	0a25c533          	min	x10,x11,x2
                  c.add        tp, s9
    19ca:	9266                	c.add	x4,x25
                  sub          s6, a4, t4
    19cc:	41d70b33          	sub	x22,x14,x29
                  binvi        s2, s10, 3
    19d0:	683d1913          	binvi	x18,x26,0x3
                  clmul        a4, a5, gp
    19d4:	0a379733          	clmul	x14,x15,x3
                  orn          s3, tp, s5
    19d8:	415269b3          	orn	x19,x4,x21
                  c.sext.h     a1
    19dc:	9ded                	c.sext.h	x11
                  bgeu         t0, zero, 156f
    19de:	0202f263          	bgeu	x5,x0,1a02 <sub_3_9+0xf0>
                  beq          s9, s3, 162f
    19e2:	033c8c63          	beq	x25,x19,1a1a <sub_3_9+0x108>
                  c.bnez       a1, 158f
    19e6:	e195                	c.bnez	x11,1a0a <sub_3_9+0xf8>
                  xori         gp, t3, -1986
    19e8:	83ee4193          	xori	x3,x28,-1986
                  bgeu         s2, a7, 155f
    19ec:	01197963          	bgeu	x18,x17,19fe <sub_3_9+0xec>
                  sh1add       ra, s7, t6
    19f0:	21fba0b3          	sh1add	x1,x23,x31
152:              divu         t6, t3, a1
    19f4:	02be5fb3          	divu	x31,x28,x11
                  c.srli       a1, 6
    19f8:	8199                	c.srli	x11,0x6
                  csrrci       a1, 0x340, 26
    19fa:	340d75f3          	csrrci	x11,mscratch,26
155:              min          a3, ra, a6
    19fe:	0b00c6b3          	min	x13,x1,x16
156:              div          a4, t5, t3
    1a02:	03cf4733          	div	x14,x30,x28
                  bgeu         a3, a4, 166f
    1a06:	02e6f163          	bgeu	x13,x14,1a28 <sub_3_9+0x116>
158:              mul          a1, a5, t2
    1a0a:	027785b3          	mul	x11,x15,x7
                  fence.i
    1a0e:	0000100f          	fence.i
                  csrrc        t0, 0x340, a5
    1a12:	3407b2f3          	csrrc	x5,mscratch,x15
                  andi         s4, s8, -1915
    1a16:	885c7a13          	andi	x20,x24,-1915
162:              sltu         ra, tp, t3
    1a1a:	01c230b3          	sltu	x1,x4,x28
                  c.addi       a7, -1
    1a1e:	18fd                	c.addi	x17,-1 # 596228f5 <debug_exception+0x3f5118f5>
                  bltu         a3, t6, 170f
    1a20:	01f6ec63          	bltu	x13,x31,1a38 <sub_3_9+0x126>
                  bclri        s6, s9, 18
    1a24:	492c9b13          	bclri	x22,x25,0x12
166:              bne          a0, s8, 176f
    1a28:	03851463          	bne	x10,x24,1a50 <sub_3_9+0x13e>
                  cpop         a0, a1
    1a2c:	60259513          	cpop	x10,x11
                  mulh         t5, s8, s6
    1a30:	036c1f33          	mulh	x30,x24,x22
                  bgeu         s8, sp, 173f
    1a34:	002c7863          	bgeu	x24,x2,1a44 <sub_3_9+0x132>
170:              sext.h       a1, a2
    1a38:	60561593          	sext.h	x11,x12
                  maxu         a2, a3, s2
    1a3c:	0b26f633          	maxu	x12,x13,x18
                  bext         a0, s6, s6
    1a40:	496b5533          	bext	x10,x22,x22
173:              sh2add       s11, t6, s11
    1a44:	21bfcdb3          	sh2add	x27,x31,x27
                  fence
    1a48:	0ff0000f          	fence	iorw,iorw
                  srl          t2, a7, gp
    1a4c:	0038d3b3          	srl	x7,x17,x3
176:              clmulr       s9, t1, s9
    1a50:	0b932cb3          	clmulr	x25,x6,x25
                  slt          s7, ra, s8
    1a54:	0180abb3          	slt	x23,x1,x24
                  c.zext.h     a1
    1a58:	9de9                	c.zext.h	x11
                  sra          s3, s8, t3
    1a5a:	41cc59b3          	sra	x19,x24,x28
                  div          a7, a4, a5
    1a5e:	02f748b3          	div	x17,x14,x15
                  andi         t4, s4, 2014
    1a62:	7dea7e93          	andi	x29,x20,2014
                  clmulh       s0, s5, s10
    1a66:	0baab433          	clmulh	x8,x21,x26
                  divu         s0, t3, a4
    1a6a:	02ee5433          	divu	x8,x28,x14
                  c.add        s11, a0
    1a6e:	9daa                	c.add	x27,x10
                  andi         s7, a0, -1638
    1a70:	99a57b93          	andi	x23,x10,-1638
                  csrrwi       a4, 0x340, 4
    1a74:	34025773          	csrrwi	x14,mscratch,4
                  bltu         t4, a0, 201f
    1a78:	02aee663          	bltu	x29,x10,1aa4 <sub_3_9+0x192>
                  c.not        a5
    1a7c:	9ff5                	c.not	x15
                  c.li         s0, 19
    1a7e:	444d                	c.li	x8,19
                  bexti        a3, s0, 7
    1a80:	48745693          	bexti	x13,x8,0x7
                  orn          t2, t1, a2
    1a84:	40c363b3          	orn	x7,x6,x12
                  xor          s9, s0, a5
    1a88:	00f44cb3          	xor	x25,x8,x15
                  divu         gp, t2, s11
    1a8c:	03b3d1b3          	divu	x3,x7,x27
                  csrrsi       gp, 0x340, 0
    1a90:	340061f3          	csrrsi	x3,mscratch,0
                  c.li         t2, 16
    1a94:	43c1                	c.li	x7,16
                  c.sext.b     a1
    1a96:	9de5                	c.sext.b	x11
                  bclri        t4, t4, 5
    1a98:	485e9e93          	bclri	x29,x29,0x5
                  bclr         t0, t3, s11
    1a9c:	49be12b3          	bclr	x5,x28,x27
                  c.lui        t2, 3
    1aa0:	638d                	c.lui	x7,0x3
                  c.sub        s1, a2
    1aa2:	8c91                	c.sub	x9,x12
201:              csrrsi       a0, 0x340, 0
    1aa4:	34006573          	csrrsi	x10,mscratch,0
                  bne          a2, a2, 219f
    1aa8:	02c61f63          	bne	x12,x12,1ae6 <sub_3_9+0x1d4>
                  mulhsu       a0, t2, a0
    1aac:	02a3a533          	mulhsu	x10,x7,x10
                  bset         a0, s0, s0
    1ab0:	28841533          	bset	x10,x8,x8
                  rori         s6, s3, 29
    1ab4:	61d9db13          	rori	x22,x19,0x1d
                  clz          t0, s3
    1ab8:	60099293          	clz	x5,x19
                  c.andi       s1, -1
    1abc:	98fd                	c.andi	x9,-1
                  and          tp, s10, t4
    1abe:	01dd7233          	and	x4,x26,x29
                  c.and        a4, a2
    1ac2:	8f71                	c.and	x14,x12
                  csrrwi       s5, 0x340, 16
    1ac4:	34085af3          	csrrwi	x21,mscratch,16
                  divu         a3, a5, a2
    1ac8:	02c7d6b3          	divu	x13,x15,x12
                  blt          a1, s0, 217f
    1acc:	0085c963          	blt	x11,x8,1ade <sub_3_9+0x1cc>
                  xori         gp, s11, -251
    1ad0:	f05dc193          	xori	x3,x27,-251
                  divu         t5, t2, s11
    1ad4:	03b3df33          	divu	x30,x7,x27
                  divu         a3, t3, zero
    1ad8:	020e56b3          	divu	x13,x28,x0
                  c.addi       a0, -1
    1adc:	157d                	c.addi	x10,-1
217:              bge          a3, a1, 222f
    1ade:	00b6da63          	bge	x13,x11,1af2 <sub_3_9+0x1e0>
                  sub          t5, t2, t0
    1ae2:	40538f33          	sub	x30,x7,x5
219:              min          a5, s5, a7
    1ae6:	0b1ac7b3          	min	x15,x21,x17
                  add          t5, a4, a4
    1aea:	00e70f33          	add	x30,x14,x14
                  or           a5, s11, zero
    1aee:	000de7b3          	or	x15,x27,x0
222:              csrrsi       s3, 0x340, 23
    1af2:	340be9f3          	csrrsi	x19,mscratch,23
                  srli         s4, s5, 2
    1af6:	002ada13          	srli	x20,x21,0x2
                  c.zext.h     s0
    1afa:	9c69                	c.zext.h	x8
                  binvi        s9, a1, 5
    1afc:	68559c93          	binvi	x25,x11,0x5
                  and          s6, a2, ra
    1b00:	00167b33          	and	x22,x12,x1
                  remu         s9, zero, gp
    1b04:	02307cb3          	remu	x25,x0,x3
                  bclri        gp, s9, 0
    1b08:	480c9193          	bclri	x3,x25,0x0
                  xnor         s9, s0, s4
    1b0c:	41444cb3          	xnor	x25,x8,x20
                  and          t3, a7, t4
    1b10:	01d8fe33          	and	x28,x17,x29
                  c.and        a5, a2
    1b14:	8ff1                	c.and	x15,x12
                  cpop         a0, s5
    1b16:	602a9513          	cpop	x10,x21
                  minu         tp, a3, s8
    1b1a:	0b86d233          	minu	x4,x13,x24
                  add          tp, s8, s11
    1b1e:	01bc0233          	add	x4,x24,x27
                  c.nop
    1b22:	0001                	c.addi	x0,0
                  csrrw        a3, 0x340, t4
    1b24:	340e96f3          	csrrw	x13,mscratch,x29
                  bclri        t0, t6, 1
    1b28:	481f9293          	bclri	x5,x31,0x1
                  rem          s9, ra, s0
    1b2c:	0280ecb3          	rem	x25,x1,x8
                  bexti        gp, tp, 18
    1b30:	49225193          	bexti	x3,x4,0x12
                  blt          s8, t1, 250f
    1b34:	026c4363          	blt	x24,x6,1b5a <sub_3_9+0x248>
                  bne          t0, ra, 247f
    1b38:	00129b63          	bne	x5,x1,1b4e <sub_3_9+0x23c>
                  c.lui        a4, 0xfffe2
    1b3c:	7709                	c.lui	x14,0xfffe2
                  slt          ra, s5, s7
    1b3e:	017aa0b3          	slt	x1,x21,x23
                  ori          t0, a3, -1862
    1b42:	8ba6e293          	ori	x5,x13,-1862
                  bne          s3, s2, 264f
    1b46:	05299363          	bne	x19,x18,1b8c <sub_3_9+0x27a>
                  max          t5, s9, s9
    1b4a:	0b9cef33          	max	x30,x25,x25
247:              sh1add       a3, tp, t0
    1b4e:	205226b3          	sh1add	x13,x4,x5
                  div          zero, s6, s7
    1b52:	037b4033          	div	x0,x22,x23
                  clmul        s7, t0, a7
    1b56:	0b129bb3          	clmul	x23,x5,x17
250:              max          s11, a7, s7
    1b5a:	0b78edb3          	max	x27,x17,x23
                  c.sext.h     s0
    1b5e:	9c6d                	c.sext.h	x8
                  mulh         s7, s2, a1
    1b60:	02b91bb3          	mulh	x23,x18,x11
                  c.not        a1
    1b64:	9df5                	c.not	x11
                  zext.h       s7, s6
    1b66:	080b4bb3          	zext.h	x23,x22
                  add          s9, t4, a0
    1b6a:	00ae8cb3          	add	x25,x29,x10
                  c.li         t6, -1
    1b6e:	5ffd                	c.li	x31,-1
                  bne          s8, s7, 261f
    1b70:	017c1863          	bne	x24,x23,1b80 <sub_3_9+0x26e>
                  csrrw        t2, 0x340, ra
    1b74:	340093f3          	csrrw	x7,mscratch,x1
                  remu         s9, s5, t5
    1b78:	03eafcb3          	remu	x25,x21,x30
                  rev8         s3, t5
    1b7c:	698f5993          	rev8	x19,x30
261:              min          t6, zero, a7
    1b80:	0b104fb3          	min	x31,x0,x17
                  slti         zero, t4, 144
    1b84:	090ea013          	slti	x0,x29,144
                  blt          s7, a1, 281f
    1b88:	02bbcd63          	blt	x23,x11,1bc2 <sub_3_9+0x2b0>
264:              ori          a4, a5, -385
    1b8c:	e7f7e713          	ori	x14,x15,-385
                  slti         a4, t5, 1947
    1b90:	79bf2713          	slti	x14,x30,1947
                  csrrs        ra, 0x340, zero
    1b94:	340020f3          	csrrs	x1,mscratch,x0
                  remu         tp, ra, s11
    1b98:	03b0f233          	remu	x4,x1,x27
                  c.beqz       a0, 278f
    1b9c:	cd19                	c.beqz	x10,1bba <sub_3_9+0x2a8>
                  bset         s0, t1, s10
    1b9e:	29a31433          	bset	x8,x6,x26
                  add          s0, s3, s2
    1ba2:	01298433          	add	x8,x19,x18
                  c.or         a5, a4
    1ba6:	8fd9                	c.or	x15,x14
                  rol          s0, a0, s7
    1ba8:	61751433          	rol	x8,x10,x23
                  c.xor        s0, s0
    1bac:	8c21                	c.xor	x8,x8
                  xori         zero, s11, 1035
    1bae:	40bdc013          	xori	x0,x27,1035
                  c.sext.b     a5
    1bb2:	9fe5                	c.sext.b	x15
                  c.zext.h     a4
    1bb4:	9f69                	c.zext.h	x14
                  max          a6, a1, a4
    1bb6:	0ae5e833          	max	x16,x11,x14
278:              andi         t4, t3, -588
    1bba:	db4e7e93          	andi	x29,x28,-588
                  c.add        s11, sp
    1bbe:	9d8a                	c.add	x27,x2
                  c.srai       a2, 1
    1bc0:	8605                	c.srai	x12,0x1
281:              clz          gp, s11
    1bc2:	600d9193          	clz	x3,x27
                  minu         a1, sp, a0
    1bc6:	0aa155b3          	minu	x11,x2,x10
                  c.li         a1, -1
    1bca:	55fd                	c.li	x11,-1
                  c.add        t0, a2
    1bcc:	92b2                	c.add	x5,x12
                  csrrsi       s2, 0x340, 14
    1bce:	34076973          	csrrsi	x18,mscratch,14
                  rori         s7, s8, 16
    1bd2:	610c5b93          	rori	x23,x24,0x10
                  c.slli       t2, 25
    1bd6:	03e6                	c.slli	x7,0x19
                  div          s5, s7, a4
    1bd8:	02ebcab3          	div	x21,x23,x14
                  c.mul        a3, a1
    1bdc:	9ecd                	c.mul	x13,x11
                  remu         s9, s6, s8
    1bde:	038b7cb3          	remu	x25,x22,x24
                  sra          s2, a4, a1
    1be2:	40b75933          	sra	x18,x14,x11
                  csrrci       a1, 0x340, 7
    1be6:	3403f5f3          	csrrci	x11,mscratch,7
                  csrrw        a5, 0x340, s7
    1bea:	340b97f3          	csrrw	x15,mscratch,x23
                  c.zext.h     a1
    1bee:	9de9                	c.zext.h	x11
                  ori          s9, t3, -1399
    1bf0:	a89e6c93          	ori	x25,x28,-1399
                  zext.h       s1, ra
    1bf4:	0800c4b3          	zext.h	x9,x1
                  c.and        s0, a3
    1bf8:	8c75                	c.and	x8,x13
                  sra          a0, t2, s11
    1bfa:	41b3d533          	sra	x10,x7,x27
                  sext.h       ra, tp
    1bfe:	60521093          	sext.h	x1,x4
                  add          a6, a7, sp
    1c02:	00288833          	add	x16,x17,x2
                  binvi        t2, t1, 4
    1c06:	68431393          	binvi	x7,x6,0x4
                  bclr         a5, a1, t3
    1c0a:	49c597b3          	bclr	x15,x11,x28
                  csrrw        t0, 0x340, s9
    1c0e:	340c92f3          	csrrw	x5,mscratch,x25
                  xor          a1, s6, gp
    1c12:	003b45b3          	xor	x11,x22,x3
                  c.zext.h     a2
    1c16:	9e69                	c.zext.h	x12
                  bclri        s6, s1, 26
    1c18:	49a49b13          	bclri	x22,x9,0x1a
                  slli         s7, a6, 11
    1c1c:	00b81b93          	slli	x23,x16,0xb
                  rev8         t1, a3
    1c20:	6986d313          	rev8	x6,x13
                  rol          s0, t6, a2
    1c24:	60cf9433          	rol	x8,x31,x12
                  and          a5, gp, a0
    1c28:	00a1f7b3          	and	x15,x3,x10
                  max          ra, a5, a5
    1c2c:	0af7e0b3          	max	x1,x15,x15
                  c.sext.b     s0
    1c30:	9c65                	c.sext.b	x8
                  c.andi       a4, -1
    1c32:	9b7d                	c.andi	x14,-1
                  fence
    1c34:	0ff0000f          	fence	iorw,iorw
                  mulh         s5, s0, t2
    1c38:	02741ab3          	mulh	x21,x8,x7
                  clmulh       a4, s11, a3
    1c3c:	0addb733          	clmulh	x14,x27,x13
                  c.sext.h     s0
    1c40:	9c6d                	c.sext.h	x8
                  c.zext.b     a3
    1c42:	9ee1                	c.zext.b	x13
                  sh3add       gp, s6, a3
    1c44:	20db61b3          	sh3add	x3,x22,x13
                  c.li         t5, -1
    1c48:	5f7d                	c.li	x30,-1
                  slti         t0, a5, -37
    1c4a:	fdb7a293          	slti	x5,x15,-37
                  blt          s5, tp, 332f
    1c4e:	024ac263          	blt	x21,x4,1c72 <sub_3_9+0x360>
                  c.nop
    1c52:	0001                	c.addi	x0,0
                  sh3add       s11, s2, s0
    1c54:	20896db3          	sh3add	x27,x18,x8
                  sltiu        a2, s3, -1316
    1c58:	adc9b613          	sltiu	x12,x19,-1316
                  auipc        t0, 357730
    1c5c:	57562297          	auipc	x5,0x57562
                  sh3add       t6, s11, s0
    1c60:	208defb3          	sh3add	x31,x27,x8
                  srai         t4, s4, 3
    1c64:	403a5e93          	srai	x29,x20,0x3
                  c.zext.b     a3
    1c68:	9ee1                	c.zext.b	x13
                  remu         a4, tp, t3
    1c6a:	03c27733          	remu	x14,x4,x28
                  clmulr       t3, a2, s4
    1c6e:	0b462e33          	clmulr	x28,x12,x20
332:              xor          zero, s9, s6
    1c72:	016cc033          	xor	x0,x25,x22
                  bclr         t0, s4, s8
    1c76:	498a12b3          	bclr	x5,x20,x24
                  c.not        a5
    1c7a:	9ff5                	c.not	x15
                  mul          s4, t2, a0
    1c7c:	02a38a33          	mul	x20,x7,x10
                  blt          a6, s10, 340f
    1c80:	01a84763          	blt	x16,x26,1c8e <sub_3_9+0x37c>
                  csrrci       a5, 0x340, 0
    1c84:	340077f3          	csrrci	x15,mscratch,0
                  c.mv         a6, s5
    1c88:	8856                	c.mv	x16,x21
                  or           t4, a2, s0
    1c8a:	00866eb3          	or	x29,x12,x8
340:              slli         s9, s2, 29
    1c8e:	01d91c93          	slli	x25,x18,0x1d
                  lw           ra, 4(sp)
    1c92:	4092                	c.lwsp	x1,4(x2)
                  clmulr       t4, a2, t1
    1c94:	0a662eb3          	clmulr	x29,x12,x6
                  c.sub        a5, a0
    1c98:	8f89                	c.sub	x15,x10
                  addi         sp, sp, 948
    1c9a:	3b410113          	addi	x2,x2,948
                  rev8         a3, s3
    1c9e:	6989d693          	rev8	x13,x19
                  srli         s9, s8, 28
    1ca2:	01cc5c93          	srli	x25,x24,0x1c
                  xor          s7, a3, a6
    1ca6:	0106cbb3          	xor	x23,x13,x16
                  ori          s6, ra, 1551
    1caa:	60f0eb13          	ori	x22,x1,1551
                  andi         a0, a6, 1803
    1cae:	70b87513          	andi	x10,x16,1803
650:              addi x13, x1, 0
    1cb2:	8686                	c.mv	x13,x1
650:              c.jalr x13
    1cb4:	9682                	c.jalr	x13

00001cb6 <sub_1>:
sub_1:            addi         sp, sp, -936
    1cb6:	c5810113          	addi	x2,x2,-936
                  sw           ra, 4(sp)
    1cba:	c206                	c.swsp	x1,4(x2)
                  orn          zero, a5, a6
    1cbc:	4107e033          	orn	x0,x15,x16
                  c.mv         a2, t5
    1cc0:	867a                	c.mv	x12,x30
                  csrrsi       a0, 0x340, 0
    1cc2:	34006573          	csrrsi	x10,mscratch,0
                  csrrci       t5, 0x340, 0 #start corev_zcmp_pushpop_base_stream_9
    1cc6:	34007f73          	csrrci	x30,mscratch,0
                  c.addi       t0, 6
    1cca:	0299                	c.addi	x5,6 # 57563c62 <debug_exception+0x3d452c62>
                  andn         gp, zero, ra
    1ccc:	401071b3          	andn	x3,x0,x1
                  srl          a1, t5, t0
    1cd0:	005f55b3          	srl	x11,x30,x5
                  bset         gp, s5, a4
    1cd4:	28ea91b3          	bset	x3,x21,x14
                  add          t4, a3, t2
    1cd8:	00768eb3          	add	x29,x13,x7
                  binvi        a2, s6, 3
    1cdc:	683b1613          	binvi	x12,x22,0x3
                  c.li         s9, -1
    1ce0:	5cfd                	c.li	x25,-1
                  mulhu        a5, t5, t2
    1ce2:	027f37b3          	mulhu	x15,x30,x7
                  sh2add       s2, s5, a5
    1ce6:	20fac933          	sh2add	x18,x21,x15
                  bseti        a4, s1, 28
    1cea:	29c49713          	bseti	x14,x9,0x1c
                  csrrci       s6, 0x340, 13
    1cee:	3406fb73          	csrrci	x22,mscratch,13
                  cm.push      {ra, s0-s5}, -80 #start zcmp push pop instr sequence
    1cf2:	b8ae                	cm.push	{x1,x8-x9,x18-x21},-80
                  c.sext.b     a5
    1cf4:	9fe5                	c.sext.b	x15
                  csrrs        s7, 0x340, zero
    1cf6:	34002bf3          	csrrs	x23,mscratch,x0
                  c.xor        a3, a3
    1cfa:	8eb5                	c.xor	x13,x13
                  rem          a2, s6, s3
    1cfc:	033b6633          	rem	x12,x22,x19
                  srai         s6, t1, 9
    1d00:	40935b13          	srai	x22,x6,0x9
                  csrrw        s1, 0x340, s5
    1d04:	340a94f3          	csrrw	x9,mscratch,x21
                  csrrsi       a6, 0x340, 0
    1d08:	34006873          	csrrsi	x16,mscratch,0
                  binv         a6, tp, t4
    1d0c:	69d21833          	binv	x16,x4,x29
                  rori         s2, s3, 28
    1d10:	61c9d913          	rori	x18,x19,0x1c
                  remu         s7, a4, a7
    1d14:	03177bb3          	remu	x23,x14,x17
                  c.nop
    1d18:	0001                	c.addi	x0,0
                  cm.pop       {ra, s0-s5}, 80 #end corev_zcmp_pushpop_base_stream_9
    1d1a:	baae                	cm.pop	{x1,x8-x9,x18-x21},80

00001d1c <sub_1_46>:
sub_1_46:         jal          ra, 3f
    1d1c:	00e000ef          	jal	x1,1d2a <sub_1_46+0xe>
0:                jal          ra, 4f
    1d20:	00e000ef          	jal	x1,1d2e <sub_1_46+0x12>
1:                c.jal        5f
    1d24:	2031                	c.jal	1d30 <sub_1_46+0x14>
2:                jal          s1, 8f
    1d26:	014004ef          	jal	x9,1d3a <sub_1_46+0x1e>
3:                jal          ra, 1b
    1d2a:	ffbff0ef          	jal	x1,1d24 <sub_1_46+0x8>
4:                c.j          10f
    1d2e:	a811                	c.j	1d42 <sub_1_46+0x26>
5:                jal          ra, 9f
    1d30:	00e000ef          	jal	x1,1d3e <sub_1_46+0x22>
6:                c.j          7f
    1d34:	a009                	c.j	1d36 <sub_1_46+0x1a>
7:                jal          ra, 0b
    1d36:	febff0ef          	jal	x1,1d20 <sub_1_46+0x4>
8:                jal          a1, 6b
    1d3a:	ffbff5ef          	jal	x11,1d34 <sub_1_46+0x18>
9:                jal          s0, 2b
    1d3e:	fe9ff46f          	jal	x8,1d26 <sub_1_46+0xa>
10:               c.sext.b     s0
    1d42:	9c65                	c.sext.b	x8

00001d44 <sub_1_36>:
sub_1_36:         jal          ra, 1f
    1d44:	006000ef          	jal	x1,1d4a <sub_1_36+0x6>
0:                c.j          14f
    1d48:	a025                	c.j	1d70 <sub_1_36+0x2c>
1:                jal          s6, 7f
    1d4a:	01200b6f          	jal	x22,1d5c <sub_1_36+0x18>
2:                c.j          4f
    1d4e:	a019                	c.j	1d54 <sub_1_36+0x10>
3:                jal          ra, 16f
    1d50:	028000ef          	jal	x1,1d78 <sub_1_36+0x34>
4:                c.j          9f
    1d54:	a039                	c.j	1d62 <sub_1_36+0x1e>
5:                jal          gp, 8f
    1d56:	00a001ef          	jal	x3,1d60 <sub_1_36+0x1c>
6:                c.j          18f
    1d5a:	a015                	c.j	1d7e <sub_1_36+0x3a>
7:                jal          t1, 10f
    1d5c:	0080036f          	jal	x6,1d64 <sub_1_36+0x20>
8:                c.jal        2b
    1d60:	37fd                	c.jal	1d4e <sub_1_36+0xa>
9:                c.j          0b
    1d62:	b7dd                	c.j	1d48 <sub_1_36+0x4>
10:               jal          t1, 15f
    1d64:	0100036f          	jal	x6,1d74 <sub_1_36+0x30>
11:               c.j          3b
    1d68:	b7e5                	c.j	1d50 <sub_1_36+0xc>
12:               c.j          11b
    1d6a:	bffd                	c.j	1d68 <sub_1_36+0x24>
13:               jal          ra, 12b
    1d6c:	fffff0ef          	jal	x1,1d6a <sub_1_36+0x26>
14:               jal          ra, 13b
    1d70:	ffdff0ef          	jal	x1,1d6c <sub_1_36+0x28>
15:               jal          ra, 5b
    1d74:	fe3ff0ef          	jal	x1,1d56 <sub_1_36+0x12>
16:               jal          ra, 17f
    1d78:	004000ef          	jal	x1,1d7c <sub_1_36+0x38>
17:               c.j          6b
    1d7c:	bff9                	c.j	1d5a <sub_1_36+0x16>
18:               c.zext.b     a0
    1d7e:	9d61                	c.zext.b	x10
                  c.slli       a6, 20 #start corev_zcmp_pushpop_base_stream_3
    1d80:	0852                	c.slli	x16,0x14
                  cm.push      {ra}, -64 #start zcmp push pop instr sequence
    1d82:	b84e                	cm.push	{x1},-64
                  cm.pop       {ra}, 64 #end corev_zcmp_pushpop_base_stream_3
    1d84:	ba4e                	cm.pop	{x1},64

00001d86 <sub_1_27>:
sub_1_27:         jal          ra, 15f
    1d86:	02c000ef          	jal	x1,1db2 <sub_1_27+0x2c>
0:                c.j          27f
    1d8a:	a091                	c.j	1dce <sub_1_27+0x48>
1:                c.j          4f
    1d8c:	a029                	c.j	1d96 <sub_1_27+0x10>
2:                jal          ra, 0b
    1d8e:	ffdff0ef          	jal	x1,1d8a <sub_1_27+0x4>
3:                jal          ra, 23f
    1d92:	034000ef          	jal	x1,1dc6 <sub_1_27+0x40>
4:                c.jal        13f
    1d96:	2819                	c.jal	1dac <sub_1_27+0x26>
5:                c.j          12f
    1d98:	a809                	c.j	1daa <sub_1_27+0x24>
6:                c.j          9f
    1d9a:	a021                	c.j	1da2 <sub_1_27+0x1c>
7:                jal          ra, 10f
    1d9c:	008000ef          	jal	x1,1da4 <sub_1_27+0x1e>
8:                c.jal        22f
    1da0:	200d                	c.jal	1dc2 <sub_1_27+0x3c>
9:                c.j          19f
    1da2:	a829                	c.j	1dbc <sub_1_27+0x36>
10:               jal          a0, 18f
    1da4:	0140056f          	jal	x10,1db8 <sub_1_27+0x32>
11:               c.jal        21f
    1da8:	2821                	c.jal	1dc0 <sub_1_27+0x3a>
12:               c.jal        20f
    1daa:	2811                	c.jal	1dbe <sub_1_27+0x38>
13:               jal          t1, 16f
    1dac:	0080036f          	jal	x6,1db4 <sub_1_27+0x2e>
14:               c.j          8b
    1db0:	bfc5                	c.j	1da0 <sub_1_27+0x1a>
15:               c.jal        3b
    1db2:	37c5                	c.jal	1d92 <sub_1_27+0xc>
16:               c.j          6b
    1db4:	b7dd                	c.j	1d9a <sub_1_27+0x14>
17:               c.j          25f
    1db6:	a811                	c.j	1dca <sub_1_27+0x44>
18:               jal          s7, 1b
    1db8:	fd5ffbef          	jal	x23,1d8c <sub_1_27+0x6>
19:               c.j          17b
    1dbc:	bfed                	c.j	1db6 <sub_1_27+0x30>
20:               c.jal        11b
    1dbe:	37ed                	c.jal	1da8 <sub_1_27+0x22>
21:               c.j          26f
    1dc0:	a031                	c.j	1dcc <sub_1_27+0x46>
22:               jal          ra, 2b
    1dc2:	fcdff0ef          	jal	x1,1d8e <sub_1_27+0x8>
23:               c.j          7b
    1dc6:	bfd9                	c.j	1d9c <sub_1_27+0x16>
24:               c.jal        5b
    1dc8:	3fc1                	c.jal	1d98 <sub_1_27+0x12>
25:               c.j          24b
    1dca:	bffd                	c.j	1dc8 <sub_1_27+0x42>
26:               c.jal        14b
    1dcc:	37d5                	c.jal	1db0 <sub_1_27+0x2a>
27:               and          a7, a0, s7
    1dce:	017578b3          	and	x17,x10,x23
                  rol          a7, a1, a6 #start corev_zcmp_pushpop_base_stream_22
    1dd2:	610598b3          	rol	x17,x11,x16
                  c.andi       a4, 13
    1dd6:	8b35                	c.andi	x14,13
                  mul          a1, tp, s11
    1dd8:	03b205b3          	mul	x11,x4,x27
                  fence.i
    1ddc:	0000100f          	fence.i
                  ctz          s7, t3
    1de0:	601e1b93          	ctz	x23,x28
                  c.lui        s9, 0xffff6
    1de4:	7cd9                	c.lui	x25,0xffff6
                  sll          a4, a0, tp
    1de6:	00451733          	sll	x14,x10,x4
                  c.not        s1
    1dea:	9cf5                	c.not	x9
                  cm.push      {ra, s0-s6}, -80 #start zcmp push pop instr sequence
    1dec:	b8be                	cm.push	{x1,x8-x9,x18-x22},-80
                  mul          gp, s3, gp
    1dee:	023981b3          	mul	x3,x19,x3
                  xori         s0, s9, -1701
    1df2:	95bcc413          	xori	x8,x25,-1701
                  sltu         s9, a5, s10
    1df6:	01a7bcb3          	sltu	x25,x15,x26
                  srli         tp, t1, 8
    1dfa:	00835213          	srli	x4,x6,0x8
                  addi         s3, t6, -1100
    1dfe:	bb4f8993          	addi	x19,x31,-1100 # c47d1bb4 <debug_exception+0xaa6c0bb4>
                  bclri        s9, a7, 16
    1e02:	49089c93          	bclri	x25,x17,0x10
                  srl          gp, a2, a6
    1e06:	010651b3          	srl	x3,x12,x16
                  maxu         t6, a7, t1
    1e0a:	0a68ffb3          	maxu	x31,x17,x6
                  sub          a5, sp, a7
    1e0e:	411107b3          	sub	x15,x2,x17
                  c.mul        a2, a5
    1e12:	9e5d                	c.mul	x12,x15
                  sh3add       t2, s11, s6
    1e14:	216de3b3          	sh3add	x7,x27,x22
                  minu         t5, a4, s4
    1e18:	0b475f33          	minu	x30,x14,x20
                  ctz          s9, a6
    1e1c:	60181c93          	ctz	x25,x16
                  c.li         a5, -1
    1e20:	57fd                	c.li	x15,-1
                  auipc        a1, 453839
    1e22:	6eccf597          	auipc	x11,0x6eccf
                  slli         a7, a3, 12
    1e26:	00c69893          	slli	x17,x13,0xc
                  csrrw        t1, 0x340, s5
    1e2a:	340a9373          	csrrw	x6,mscratch,x21
                  sltiu        t5, a6, 1383
    1e2e:	56783f13          	sltiu	x30,x16,1383
                  csrrci       t1, 0x340, 19
    1e32:	3409f373          	csrrci	x6,mscratch,19
                  andn         a1, t5, t4
    1e36:	41df75b3          	andn	x11,x30,x29
                  sra          s0, a2, s0
    1e3a:	40865433          	sra	x8,x12,x8
                  orc.b        a0, s6
    1e3e:	287b5513          	orc.b	x10,x22
                  ror          t4, a0, gp
    1e42:	60355eb3          	ror	x29,x10,x3
                  bseti        a4, a6, 11
    1e46:	28b81713          	bseti	x14,x16,0xb
                  sh2add       s9, t2, ra
    1e4a:	2013ccb3          	sh2add	x25,x7,x1
                  and          s6, a3, a2
    1e4e:	00c6fb33          	and	x22,x13,x12
                  nop
    1e52:	0001                	c.addi	x0,0
                  addi         t4, t6, -1581
    1e54:	9d3f8e93          	addi	x29,x31,-1581
                  remu         t6, s6, t2
    1e58:	027b7fb3          	remu	x31,x22,x7
                  cm.pop       {ra, s0-s6}, 80 #end corev_zcmp_pushpop_base_stream_22
    1e5c:	babe                	cm.pop	{x1,x8-x9,x18-x22},80

00001e5e <sub_1_31>:
sub_1_31:         jal          ra, 5f
    1e5e:	012000ef          	jal	x1,1e70 <sub_1_31+0x12>
0:                c.jal        11f
    1e62:	200d                	c.jal	1e84 <sub_1_31+0x26>
1:                jal          ra, 10f
    1e64:	01c000ef          	jal	x1,1e80 <sub_1_31+0x22>
2:                jal          ra, 13f
    1e68:	020000ef          	jal	x1,1e88 <sub_1_31+0x2a>
3:                c.jal        9f
    1e6c:	2801                	c.jal	1e7c <sub_1_31+0x1e>
4:                c.jal        16f
    1e6e:	2005                	c.jal	1e8e <sub_1_31+0x30>
5:                jal          a6, 17f
    1e70:	0200086f          	jal	x16,1e90 <sub_1_31+0x32>
6:                jal          t1, 3b
    1e74:	ff9ff36f          	jal	x6,1e6c <sub_1_31+0xe>
7:                c.j          18f
    1e78:	a831                	c.j	1e94 <sub_1_31+0x36>
8:                c.j          7b
    1e7a:	bffd                	c.j	1e78 <sub_1_31+0x1a>
9:                jal          ra, 15f
    1e7c:	010000ef          	jal	x1,1e8c <sub_1_31+0x2e>
10:               jal          ra, 2b
    1e80:	fe9ff0ef          	jal	x1,1e68 <sub_1_31+0xa>
11:               c.j          6b
    1e84:	bfc5                	c.j	1e74 <sub_1_31+0x16>
12:               c.jal        14f
    1e86:	2011                	c.jal	1e8a <sub_1_31+0x2c>
13:               c.j          19f
    1e88:	a039                	c.j	1e96 <sub_1_31+0x38>
14:               c.jal        1b
    1e8a:	3fe9                	c.jal	1e64 <sub_1_31+0x6>
15:               c.jal        4b
    1e8c:	37cd                	c.jal	1e6e <sub_1_31+0x10>
16:               c.j          12b
    1e8e:	bfe5                	c.j	1e86 <sub_1_31+0x28>
17:               jal          t1, 8b
    1e90:	febff36f          	jal	x6,1e7a <sub_1_31+0x1c>
18:               c.j          0b
    1e94:	b7f9                	c.j	1e62 <sub_1_31+0x4>
19:               c.jal        20f
    1e96:	2009                	c.jal	1e98 <sub_1_31+0x3a>
20:               addi         gp, a7, 1983
    1e98:	7bf88193          	addi	x3,x17,1983

00001e9c <sub_1_35>:
sub_1_35:         jal          ra, 18f
    1e9c:	03c000ef          	jal	x1,1ed8 <sub_1_35+0x3c>
0:                c.j          13f
    1ea0:	a025                	c.j	1ec8 <sub_1_35+0x2c>
1:                jal          ra, 5f
    1ea2:	00e000ef          	jal	x1,1eb0 <sub_1_35+0x14>
2:                jal          tp, 21f
    1ea6:	03c0026f          	jal	x4,1ee2 <sub_1_35+0x46>
3:                c.j          15f
    1eaa:	a015                	c.j	1ece <sub_1_35+0x32>
4:                jal          ra, 20f
    1eac:	032000ef          	jal	x1,1ede <sub_1_35+0x42>
5:                c.jal        16f
    1eb0:	2005                	c.jal	1ed0 <sub_1_35+0x34>
6:                c.j          10f
    1eb2:	a029                	c.j	1ebc <sub_1_35+0x20>
7:                c.j          19f
    1eb4:	a025                	c.j	1edc <sub_1_35+0x40>
8:                c.jal        4b
    1eb6:	3fdd                	c.jal	1eac <sub_1_35+0x10>
9:                jal          gp, 12f
    1eb8:	00c001ef          	jal	x3,1ec4 <sub_1_35+0x28>
10:               jal          a3, 7b
    1ebc:	ff9ff6ef          	jal	x13,1eb4 <sub_1_35+0x18>
11:               jal          s5, 0b
    1ec0:	fe1ffaef          	jal	x21,1ea0 <sub_1_35+0x4>
12:               jal          a5, 11b
    1ec4:	ffdff7ef          	jal	x15,1ec0 <sub_1_35+0x24>
13:               c.j          3b
    1ec8:	b7cd                	c.j	1eaa <sub_1_35+0xe>
14:               jal          ra, 8b
    1eca:	fedff0ef          	jal	x1,1eb6 <sub_1_35+0x1a>
15:               c.jal        6b
    1ece:	37d5                	c.jal	1eb2 <sub_1_35+0x16>
16:               jal          ra, 14b
    1ed0:	ffbff0ef          	jal	x1,1eca <sub_1_35+0x2e>
17:               jal          ra, 2b
    1ed4:	fd3ff0ef          	jal	x1,1ea6 <sub_1_35+0xa>
18:               jal          ra, 9b
    1ed8:	fe1ff0ef          	jal	x1,1eb8 <sub_1_35+0x1c>
19:               c.j          1b
    1edc:	b7d9                	c.j	1ea2 <sub_1_35+0x6>
20:               jal          s2, 17b
    1ede:	ff7ff96f          	jal	x18,1ed4 <sub_1_35+0x38>
21:               fence.i
    1ee2:	0000100f          	fence.i

00001ee6 <sub_1_39>:
sub_1_39:         jal          ra, 11f
    1ee6:	01c000ef          	jal	x1,1f02 <sub_1_39+0x1c>
0:                jal          t3, 15f
    1eea:	02400e6f          	jal	x28,1f0e <sub_1_39+0x28>
1:                c.jal        10f
    1eee:	2809                	c.jal	1f00 <sub_1_39+0x1a>
2:                c.jal        12f
    1ef0:	2819                	c.jal	1f06 <sub_1_39+0x20>
3:                c.jal        4f
    1ef2:	2009                	c.jal	1ef4 <sub_1_39+0xe>
4:                c.jal        5f
    1ef4:	2009                	c.jal	1ef6 <sub_1_39+0x10>
5:                c.jal        8f
    1ef6:	2019                	c.jal	1efc <sub_1_39+0x16>
6:                c.jal        3b
    1ef8:	3fed                	c.jal	1ef2 <sub_1_39+0xc>
7:                c.jal        2b
    1efa:	3fdd                	c.jal	1ef0 <sub_1_39+0xa>
8:                c.jal        14f
    1efc:	2801                	c.jal	1f0c <sub_1_39+0x26>
9:                c.j          7b
    1efe:	bff5                	c.j	1efa <sub_1_39+0x14>
10:               c.j          0b
    1f00:	b7ed                	c.j	1eea <sub_1_39+0x4>
11:               jal          t0, 6b
    1f02:	ff7ff2ef          	jal	x5,1ef8 <sub_1_39+0x12>
12:               c.jal        13f
    1f06:	2009                	c.jal	1f08 <sub_1_39+0x22>
13:               jal          t5, 1b
    1f08:	fe7fff6f          	jal	x30,1eee <sub_1_39+0x8>
14:               c.jal        9b
    1f0c:	3fcd                	c.jal	1efe <sub_1_39+0x18>
15:               orc.b        zero, s1
    1f0e:	2874d013          	orc.b	x0,x9

00001f12 <sub_1_38>:
sub_1_38:         jal          ra, 12f
    1f12:	022000ef          	jal	x1,1f34 <sub_1_38+0x22>
0:                jal          ra, 19f
    1f16:	030000ef          	jal	x1,1f46 <sub_1_38+0x34>
1:                c.j          20f
    1f1a:	a03d                	c.j	1f48 <sub_1_38+0x36>
2:                c.j          3f
    1f1c:	a009                	c.j	1f1e <sub_1_38+0xc>
3:                c.jal        0b
    1f1e:	3fe5                	c.jal	1f16 <sub_1_38+0x4>
4:                c.jal        17f
    1f20:	200d                	c.jal	1f42 <sub_1_38+0x30>
5:                c.j          1b
    1f22:	bfe5                	c.j	1f1a <sub_1_38+0x8>
6:                c.jal        16f
    1f24:	2829                	c.jal	1f3e <sub_1_38+0x2c>
7:                jal          a1, 11f
    1f26:	00a005ef          	jal	x11,1f30 <sub_1_38+0x1e>
8:                c.jal        6b
    1f2a:	3fed                	c.jal	1f24 <sub_1_38+0x12>
9:                c.j          13f
    1f2c:	a029                	c.j	1f36 <sub_1_38+0x24>
10:               c.j          8b
    1f2e:	bff5                	c.j	1f2a <sub_1_38+0x18>
11:               jal          s5, 5b
    1f30:	ff3ffaef          	jal	x21,1f22 <sub_1_38+0x10>
12:               c.j          7b
    1f34:	bfcd                	c.j	1f26 <sub_1_38+0x14>
13:               c.jal        2b
    1f36:	37dd                	c.jal	1f1c <sub_1_38+0xa>
14:               jal          tp, 21f
    1f38:	0120026f          	jal	x4,1f4a <sub_1_38+0x38>
15:               c.jal        10b
    1f3c:	3fcd                	c.jal	1f2e <sub_1_38+0x1c>
16:               jal          t1, 9b
    1f3e:	fefff36f          	jal	x6,1f2c <sub_1_38+0x1a>
17:               c.j          15b
    1f42:	bfed                	c.j	1f3c <sub_1_38+0x2a>
18:               c.jal        4b
    1f44:	3ff1                	c.jal	1f20 <sub_1_38+0xe>
19:               c.j          14b
    1f46:	bfcd                	c.j	1f38 <sub_1_38+0x26>
20:               c.jal        18b
    1f48:	3ff5                	c.jal	1f44 <sub_1_38+0x32>
21:               c.slli       t0, 24
    1f4a:	02e2                	c.slli	x5,0x18

00001f4c <sub_1_33>:
sub_1_33:         jal          ra, 20f
    1f4c:	03c000ef          	jal	x1,1f88 <sub_1_33+0x3c>
0:                jal          ra, 2f
    1f50:	008000ef          	jal	x1,1f58 <sub_1_33+0xc>
1:                jal          t1, 21f
    1f54:	0380036f          	jal	x6,1f8c <sub_1_33+0x40>
2:                c.jal        8f
    1f58:	2801                	c.jal	1f68 <sub_1_33+0x1c>
3:                jal          gp, 1b
    1f5a:	ffbff1ef          	jal	x3,1f54 <sub_1_33+0x8>
4:                jal          ra, 13f
    1f5e:	01a000ef          	jal	x1,1f78 <sub_1_33+0x2c>
5:                c.jal        9f
    1f62:	2029                	c.jal	1f6c <sub_1_33+0x20>
6:                c.j          3b
    1f64:	bfdd                	c.j	1f5a <sub_1_33+0xe>
7:                c.j          17f
    1f66:	a831                	c.j	1f82 <sub_1_33+0x36>
8:                jal          gp, 7b
    1f68:	fffff1ef          	jal	x3,1f66 <sub_1_33+0x1a>
9:                jal          ra, 12f
    1f6c:	008000ef          	jal	x1,1f74 <sub_1_33+0x28>
10:               c.jal        18f
    1f70:	2811                	c.jal	1f84 <sub_1_33+0x38>
11:               c.j          16f
    1f72:	a039                	c.j	1f80 <sub_1_33+0x34>
12:               jal          ra, 10b
    1f74:	ffdff0ef          	jal	x1,1f70 <sub_1_33+0x24>
13:               c.jal        15f
    1f78:	2019                	c.jal	1f7e <sub_1_33+0x32>
14:               jal          t1, 6b
    1f7a:	febff36f          	jal	x6,1f64 <sub_1_33+0x18>
15:               c.jal        19f
    1f7e:	2021                	c.jal	1f86 <sub_1_33+0x3a>
16:               c.jal        4b
    1f80:	3ff9                	c.jal	1f5e <sub_1_33+0x12>
17:               c.j          5b
    1f82:	b7c5                	c.j	1f62 <sub_1_33+0x16>
18:               c.j          11b
    1f84:	b7fd                	c.j	1f72 <sub_1_33+0x26>
19:               c.j          14b
    1f86:	bfd5                	c.j	1f7a <sub_1_33+0x2e>
20:               jal          a6, 0b
    1f88:	fc9ff86f          	jal	x16,1f50 <sub_1_33+0x4>
21:               srl          s3, ra, s0
    1f8c:	0080d9b3          	srl	x19,x1,x8
                  bclri        a7, a4, 19 #start corev_zcmp_pushpop_base_stream_6
    1f90:	49371893          	bclri	x17,x14,0x13
                  sext.b       s9, sp
    1f94:	60411c93          	sext.b	x25,x2
                  sh3add       t4, s0, s4
    1f98:	21446eb3          	sh3add	x29,x8,x20
                  cm.push      {ra, s0-s9}, -96 #start zcmp push pop instr sequence
    1f9c:	b8ee                	cm.push	{x1,x8-x9,x18-x25},-96
                  c.xor        a2, a5
    1f9e:	8e3d                	c.xor	x12,x15
                  orn          t0, t1, a6
    1fa0:	410362b3          	orn	x5,x6,x16
                  csrrc        a3, 0x340, zero
    1fa4:	340036f3          	csrrc	x13,mscratch,x0
                  zext.h       a7, s7
    1fa8:	080bc8b3          	zext.h	x17,x23
                  clmul        s9, s0, gp
    1fac:	0a341cb3          	clmul	x25,x8,x3
                  c.zext.b     a3
    1fb0:	9ee1                	c.zext.b	x13
                  div          t2, ra, sp
    1fb2:	0220c3b3          	div	x7,x1,x2
                  minu         s2, zero, s1
    1fb6:	0a905933          	minu	x18,x0,x9
                  bexti        a2, s3, 14
    1fba:	48e9d613          	bexti	x12,x19,0xe
                  sra          s2, a7, sp
    1fbe:	4028d933          	sra	x18,x17,x2
                  andn         a4, sp, s3
    1fc2:	41317733          	andn	x14,x2,x19
                  xnor         s3, s9, t2
    1fc6:	407cc9b3          	xnor	x19,x25,x7
                  cm.pop       {ra, s0-s9}, 96 #end corev_zcmp_pushpop_base_stream_6
    1fca:	baee                	cm.pop	{x1,x8-x9,x18-x25},96
                  cm.push      {ra, s0-s7}, -96 #start corev_zcmp_pushpop_base_stream_14
    1fcc:	b8ce                	cm.push	{x1,x8-x9,x18-x23},-96
                  csrrw        s0, 0x340, s7
    1fce:	340b9473          	csrrw	x8,mscratch,x23
                  c.slli       s0, 4
    1fd2:	0412                	c.slli	x8,0x4
                  cm.pop       {ra, s0-s7}, 96 #end corev_zcmp_pushpop_base_stream_14
    1fd4:	bace                	cm.pop	{x1,x8-x9,x18-x23},96

00001fd6 <sub_1_26>:
sub_1_26:         jal          ra, 2f
    1fd6:	00a000ef          	jal	x1,1fe0 <sub_1_26+0xa>
0:                c.jal        11f
    1fda:	2829                	c.jal	1ff4 <sub_1_26+0x1e>
1:                jal          ra, 14f
    1fdc:	020000ef          	jal	x1,1ffc <sub_1_26+0x26>
2:                c.j          4f
    1fe0:	a011                	c.j	1fe4 <sub_1_26+0xe>
3:                c.j          12f
    1fe2:	a811                	c.j	1ff6 <sub_1_26+0x20>
4:                c.j          1b
    1fe4:	bfe5                	c.j	1fdc <sub_1_26+0x6>
5:                c.jal        23f
    1fe6:	2805                	c.jal	2016 <sub_1_26+0x40>
6:                c.j          22f
    1fe8:	a035                	c.j	2014 <sub_1_26+0x3e>
7:                c.j          19f
    1fea:	a005                	c.j	200a <sub_1_26+0x34>
8:                c.jal        21f
    1fec:	2015                	c.jal	2010 <sub_1_26+0x3a>
9:                jal          ra, 10f
    1fee:	004000ef          	jal	x1,1ff2 <sub_1_26+0x1c>
10:               c.j          8b
    1ff2:	bfed                	c.j	1fec <sub_1_26+0x16>
11:               c.jal        7b
    1ff4:	3fdd                	c.jal	1fea <sub_1_26+0x14>
12:               jal          ra, 16f
    1ff6:	00a000ef          	jal	x1,2000 <sub_1_26+0x2a>
13:               c.jal        3b
    1ffa:	37e5                	c.jal	1fe2 <sub_1_26+0xc>
14:               c.j          0b
    1ffc:	bff9                	c.j	1fda <sub_1_26+0x4>
15:               c.j          5b
    1ffe:	b7e5                	c.j	1fe6 <sub_1_26+0x10>
16:               jal          ra, 15b
    2000:	fffff0ef          	jal	x1,1ffe <sub_1_26+0x28>
17:               c.jal        24f
    2004:	2811                	c.jal	2018 <sub_1_26+0x42>
18:               jal          a3, 17b
    2006:	fffff6ef          	jal	x13,2004 <sub_1_26+0x2e>
19:               c.jal        6b
    200a:	3ff9                	c.jal	1fe8 <sub_1_26+0x12>
20:               jal          ra, 18b
    200c:	ffbff0ef          	jal	x1,2006 <sub_1_26+0x30>
21:               jal          ra, 25f
    2010:	00a000ef          	jal	x1,201a <sub_1_26+0x44>
22:               c.jal        20b
    2014:	3fe5                	c.jal	200c <sub_1_26+0x36>
23:               c.j          9b
    2016:	bfe1                	c.j	1fee <sub_1_26+0x18>
24:               c.jal        13b
    2018:	37cd                	c.jal	1ffa <sub_1_26+0x24>
25:               c.addi       tp, 27
    201a:	026d                	c.addi	x4,27 # 1b <mtvec_handler+0x1b>
                  fence #start corev_zcmp_pushpop_base_stream_15
    201c:	0ff0000f          	fence	iorw,iorw
                  bexti        s2, s2, 3
    2020:	48395913          	bexti	x18,x18,0x3
                  c.slli       s2, 30
    2024:	097a                	c.slli	x18,0x1e
                  zext.h       t2, s9
    2026:	080cc3b3          	zext.h	x7,x25
                  nop
    202a:	0001                	c.addi	x0,0
                  sext.b       t6, s10
    202c:	604d1f93          	sext.b	x31,x26
                  min          a1, s7, s9
    2030:	0b9bc5b3          	min	x11,x23,x25
                  cm.push      {ra, s0-s8}, -96 #start zcmp push pop instr sequence
    2034:	b8de                	cm.push	{x1,x8-x9,x18-x24},-96
                  bext         a3, s2, a2
    2036:	48c956b3          	bext	x13,x18,x12
                  mulhsu       s3, s11, s0
    203a:	028da9b3          	mulhsu	x19,x27,x8
                  xor          a1, a1, s8
    203e:	0185c5b3          	xor	x11,x11,x24
                  and          ra, s0, s1
    2042:	009470b3          	and	x1,x8,x9
                  c.add        a3, t1
    2046:	969a                	c.add	x13,x6
                  cpop         s4, a7
    2048:	60289a13          	cpop	x20,x17
                  min          s7, a7, a1
    204c:	0ab8cbb3          	min	x23,x17,x11
                  rori         s3, s10, 21
    2050:	615d5993          	rori	x19,x26,0x15
                  sh3add       s4, s4, s3
    2054:	213a6a33          	sh3add	x20,x20,x19
                  bset         tp, t0, s4
    2058:	29429233          	bset	x4,x5,x20
                  fence
    205c:	0ff0000f          	fence	iorw,iorw
                  ctz          s5, s6
    2060:	601b1a93          	ctz	x21,x22
                  clmul        a4, t1, s7
    2064:	0b731733          	clmul	x14,x6,x23
                  xor          a5, a7, zero
    2068:	0008c7b3          	xor	x15,x17,x0
                  andi         s9, s4, 1822
    206c:	71ea7c93          	andi	x25,x20,1822
                  sltiu        s6, t4, 1129
    2070:	469ebb13          	sltiu	x22,x29,1129
                  c.xor        a0, s1
    2074:	8d25                	c.xor	x10,x9
                  ori          a1, a3, 305
    2076:	1316e593          	ori	x11,x13,305
                  c.srai       a0, 27
    207a:	856d                	c.srai	x10,0x1b
                  slli         s7, sp, 10
    207c:	00a11b93          	slli	x23,x2,0xa
                  csrrwi       s11, 0x340, 1
    2080:	3400ddf3          	csrrwi	x27,mscratch,1
                  fence
    2084:	0ff0000f          	fence	iorw,iorw
                  slti         t3, t5, -1409
    2088:	a7ff2e13          	slti	x28,x30,-1409
                  c.mul        a0, a1
    208c:	9d4d                	c.mul	x10,x11
                  clmulh       t2, s1, s2
    208e:	0b24b3b3          	clmulh	x7,x9,x18
                  remu         a6, s9, t0
    2092:	025cf833          	remu	x16,x25,x5
                  c.lui        s6, 19
    2096:	6b4d                	c.lui	x22,0x13
                  xor          gp, tp, s3
    2098:	013241b3          	xor	x3,x4,x19
                  c.sub        a1, s0
    209c:	8d81                	c.sub	x11,x8
                  srli         ra, tp, 10
    209e:	00a25093          	srli	x1,x4,0xa
                  lui          s11, 902133
    20a2:	dc3f5db7          	lui	x27,0xdc3f5
                  sext.h       a6, t1
    20a6:	60531813          	sext.h	x16,x6
                  cm.pop       {ra, s0-s8}, 96 #end corev_zcmp_pushpop_base_stream_15
    20aa:	bade                	cm.pop	{x1,x8-x9,x18-x24},96

000020ac <sub_1_37>:
sub_1_37:         jal          ra, 5f
    20ac:	010000ef          	jal	x1,20bc <sub_1_37+0x10>
0:                c.jal        11f
    20b0:	2839                	c.jal	20ce <sub_1_37+0x22>
1:                c.j          12f
    20b2:	a839                	c.j	20d0 <sub_1_37+0x24>
2:                c.j          4f
    20b4:	a011                	c.j	20b8 <sub_1_37+0xc>
3:                c.jal        8f
    20b6:	2039                	c.jal	20c4 <sub_1_37+0x18>
4:                jal          t1, 10f
    20b8:	0120036f          	jal	x6,20ca <sub_1_37+0x1e>
5:                jal          ra, 9f
    20bc:	00a000ef          	jal	x1,20c6 <sub_1_37+0x1a>
6:                c.j          7f
    20c0:	a009                	c.j	20c2 <sub_1_37+0x16>
7:                c.jal        3b
    20c2:	3fd5                	c.jal	20b6 <sub_1_37+0xa>
8:                c.jal        1b
    20c4:	37fd                	c.jal	20b2 <sub_1_37+0x6>
9:                jal          ra, 15f
    20c6:	012000ef          	jal	x1,20d8 <sub_1_37+0x2c>
10:               jal          tp, 16f
    20ca:	0100026f          	jal	x4,20da <sub_1_37+0x2e>
11:               c.jal        6b
    20ce:	3fcd                	c.jal	20c0 <sub_1_37+0x14>
12:               c.jal        13f
    20d0:	2009                	c.jal	20d2 <sub_1_37+0x26>
13:               c.j          2b
    20d2:	b7cd                	c.j	20b4 <sub_1_37+0x8>
14:               jal          ra, 0b
    20d4:	fddff0ef          	jal	x1,20b0 <sub_1_37+0x4>
15:               c.j          14b
    20d8:	bff5                	c.j	20d4 <sub_1_37+0x28>
16:               csrrw        ra, 0x340, t3
    20da:	340e10f3          	csrrw	x1,mscratch,x28
                  bclri        s11, s4, 13 #start corev_zcmp_pushpop_base_stream_4
    20de:	48da1d93          	bclri	x27,x20,0xd
                  binvi        zero, t4, 0
    20e2:	680e9013          	binvi	x0,x29,0x0
                  cm.push      {ra, s0-s5}, -80 #start zcmp push pop instr sequence
    20e6:	b8ae                	cm.push	{x1,x8-x9,x18-x21},-80
                  csrrsi       a7, 0x340, 3
    20e8:	3401e8f3          	csrrsi	x17,mscratch,3
                  xor          t3, s3, t2
    20ec:	0079ce33          	xor	x28,x19,x7
                  c.not        a3
    20f0:	9ef5                	c.not	x13
                  slti         zero, t2, 999
    20f2:	3e73a013          	slti	x0,x7,999
                  or           t6, a1, a7
    20f6:	0115efb3          	or	x31,x11,x17
                  fence
    20fa:	0ff0000f          	fence	iorw,iorw
                  mulhsu       t5, s5, a6
    20fe:	030aaf33          	mulhsu	x30,x21,x16
                  slli         t6, s11, 23
    2102:	017d9f93          	slli	x31,x27,0x17
                  csrrs        s1, 0x340, zero
    2106:	340024f3          	csrrs	x9,mscratch,x0
                  binv         tp, s6, s3
    210a:	693b1233          	binv	x4,x22,x19
                  orn          a2, t1, a0
    210e:	40a36633          	orn	x12,x6,x10
                  bseti        t3, t5, 18
    2112:	292f1e13          	bseti	x28,x30,0x12
                  mulhsu       s7, s6, a7
    2116:	031b2bb3          	mulhsu	x23,x22,x17
                  ror          t2, tp, sp
    211a:	602253b3          	ror	x7,x4,x2
                  maxu         a1, t4, s4
    211e:	0b4ef5b3          	maxu	x11,x29,x20
                  auipc        a7, 71268
    2122:	11664897          	auipc	x17,0x11664
                  cm.pop       {ra, s0-s5}, 80 #end corev_zcmp_pushpop_base_stream_4
    2126:	baae                	cm.pop	{x1,x8-x9,x18-x21},80
                  remu         t2, t2, t5 #start corev_zcmp_pushpop_base_stream_5
    2128:	03e3f3b3          	remu	x7,x7,x30
                  or           s2, t0, t3
    212c:	01c2e933          	or	x18,x5,x28
                  rol          s11, s5, s7
    2130:	617a9db3          	rol	x27,x21,x23
                  rol          gp, t0, s8
    2134:	618291b3          	rol	x3,x5,x24
                  c.lui        s1, 29
    2138:	64f5                	c.lui	x9,0x1d
                  c.sub        a5, a4
    213a:	8f99                	c.sub	x15,x14
                  andi         t6, t0, 1781
    213c:	6f52ff93          	andi	x31,x5,1781
                  clmulh       gp, a4, s5
    2140:	0b5731b3          	clmulh	x3,x14,x21
                  clmulr       a0, s11, gp
    2144:	0a3da533          	clmulr	x10,x27,x3
                  mulh         a1, s11, zero
    2148:	020d95b3          	mulh	x11,x27,x0
                  sltiu        t3, a5, -479
    214c:	e217be13          	sltiu	x28,x15,-479
                  c.mv         a2, s5
    2150:	8656                	c.mv	x12,x21
                  c.sext.h     a5
    2152:	9fed                	c.sext.h	x15
                  nop
    2154:	0001                	c.addi	x0,0
                  orn          ra, s1, t1
    2156:	4064e0b3          	orn	x1,x9,x6
                  bexti        s3, t2, 28
    215a:	49c3d993          	bexti	x19,x7,0x1c
                  slli         zero, tp, 7
    215e:	00721013          	slli	x0,x4,0x7
                  srl          a3, s11, s5
    2162:	015dd6b3          	srl	x13,x27,x21
                  c.and        a1, a1
    2166:	8ded                	c.and	x11,x11
                  add          t5, s9, t4
    2168:	01dc8f33          	add	x30,x25,x29
                  sext.b       gp, sp
    216c:	60411193          	sext.b	x3,x2
                  bexti        s9, a4, 0
    2170:	48075c93          	bexti	x25,x14,0x0
                  c.addi       a3, -1
    2174:	16fd                	c.addi	x13,-1 # 14e26537 <test_ret_val+0x14626477>
                  csrrwi       s2, 0x340, 15
    2176:	3407d973          	csrrwi	x18,mscratch,15
                  ctz          t1, t0
    217a:	60129313          	ctz	x6,x5
                  or           a4, ra, t3
    217e:	01c0e733          	or	x14,x1,x28
                  c.addi       s2, 7
    2182:	091d                	c.addi	x18,7 # 50d2d007 <debug_exception+0x36c1c007>
                  maxu         a1, s2, t1
    2184:	0a6975b3          	maxu	x11,x18,x6
                  sext.b       s0, sp
    2188:	60411413          	sext.b	x8,x2
                  binv         a5, zero, s10
    218c:	69a017b3          	binv	x15,x0,x26
                  csrrwi       s9, 0x340, 19
    2190:	3409dcf3          	csrrwi	x25,mscratch,19
                  sltu         a5, a2, s9
    2194:	019637b3          	sltu	x15,x12,x25
                  mulhsu       a1, sp, t3
    2198:	03c125b3          	mulhsu	x11,x2,x28
                  mulhsu       s6, t0, t1
    219c:	0262ab33          	mulhsu	x22,x5,x6
                  c.addi       s0, -1
    21a0:	147d                	c.addi	x8,-1 # 80bf7fff <debug_exception+0x66ae6fff>
                  andn         a1, s5, s1
    21a2:	409af5b3          	andn	x11,x21,x9
                  sext.b       s3, s1
    21a6:	60449993          	sext.b	x19,x9
                  max          a1, t3, a0
    21aa:	0aae65b3          	max	x11,x28,x10
                  cm.push      {ra, s0-s1}, -64 #start zcmp push pop instr sequence
    21ae:	b86e                	cm.push	{x1,x8-x9},-64
                  zext.h       s7, gp
    21b0:	0801cbb3          	zext.h	x23,x3
                  c.sext.h     a0
    21b4:	9d6d                	c.sext.h	x10
                  binv         zero, a3, s9
    21b6:	69969033          	binv	x0,x13,x25
                  binv         t1, sp, t3
    21ba:	69c11333          	binv	x6,x2,x28
                  slli         a5, a0, 11
    21be:	00b51793          	slli	x15,x10,0xb
                  c.li         t3, -1
    21c2:	5e7d                	c.li	x28,-1
                  cm.pop       {ra, s0-s1}, 64 #end corev_zcmp_pushpop_base_stream_5
    21c4:	ba6e                	cm.pop	{x1,x8-x9},64
                  c.mul        a5, a2 #start corev_zcmp_pushpop_base_stream_17
    21c6:	9fd1                	c.mul	x15,x12
                  nop
    21c8:	0001                	c.addi	x0,0
                  sra          a5, s8, t6
    21ca:	41fc57b3          	sra	x15,x24,x31
                  csrrwi       t6, 0x340, 23
    21ce:	340bdff3          	csrrwi	x31,mscratch,23
                  cm.push      {ra, s0-s3}, -80 #start zcmp push pop instr sequence
    21d2:	b88e                	cm.push	{x1,x8-x9,x18-x19},-80
                  sltu         s6, s8, sp
    21d4:	002c3b33          	sltu	x22,x24,x2
                  sub          s5, s2, t6
    21d8:	41f90ab3          	sub	x21,x18,x31
                  slt          tp, a0, t3
    21dc:	01c52233          	slt	x4,x10,x28
                  c.slli       t6, 19
    21e0:	0fce                	c.slli	x31,0x13
                  c.li         a3, 10
    21e2:	46a9                	c.li	x13,10
                  xnor         t2, zero, t4
    21e4:	41d043b3          	xnor	x7,x0,x29
                  binvi        s1, a7, 3
    21e8:	68389493          	binvi	x9,x17,0x3
                  min          t4, a1, a7
    21ec:	0b15ceb3          	min	x29,x11,x17
                  c.li         s4, -1
    21f0:	5a7d                	c.li	x20,-1
                  fence.i
    21f2:	0000100f          	fence.i
                  csrrci       t4, 0x340, 29
    21f6:	340efef3          	csrrci	x29,mscratch,29
                  addi         a4, a1, -596
    21fa:	dac58713          	addi	x14,x11,-596 # 6ecd0bce <debug_exception+0x54bbfbce>
                  c.sext.b     a3
    21fe:	9ee5                	c.sext.b	x13
                  sext.b       tp, t5
    2200:	604f1213          	sext.b	x4,x30
                  c.mv         a7, gp
    2204:	888e                	c.mv	x17,x3
                  cm.pop       {ra, s0-s3}, 80 #end corev_zcmp_pushpop_base_stream_17
    2206:	ba8e                	cm.pop	{x1,x8-x9,x18-x19},80

00002208 <sub_1_30>:
sub_1_30:         jal          ra, 26f
    2208:	046000ef          	jal	x1,224e <sub_1_30+0x46>
0:                jal          t1, 23f
    220c:	03a0036f          	jal	x6,2246 <sub_1_30+0x3e>
1:                c.jal        9f
    2210:	2809                	c.jal	2222 <sub_1_30+0x1a>
2:                c.j          24f
    2212:	a81d                	c.j	2248 <sub_1_30+0x40>
3:                jal          ra, 27f
    2214:	03c000ef          	jal	x1,2250 <sub_1_30+0x48>
4:                c.j          7f
    2218:	a019                	c.j	221e <sub_1_30+0x16>
5:                c.jal        15f
    221a:	2821                	c.jal	2232 <sub_1_30+0x2a>
6:                c.j          14f
    221c:	a809                	c.j	222e <sub_1_30+0x26>
7:                c.j          10f
    221e:	a019                	c.j	2224 <sub_1_30+0x1c>
8:                c.j          21f
    2220:	a00d                	c.j	2242 <sub_1_30+0x3a>
9:                c.j          19f
    2222:	a831                	c.j	223e <sub_1_30+0x36>
10:               c.jal        2b
    2224:	37fd                	c.jal	2212 <sub_1_30+0xa>
11:               c.jal        12f
    2226:	2009                	c.jal	2228 <sub_1_30+0x20>
12:               jal          t1, 4b
    2228:	ff1ff36f          	jal	x6,2218 <sub_1_30+0x10>
13:               c.jal        16f
    222c:	2021                	c.jal	2234 <sub_1_30+0x2c>
14:               jal          t0, 5b
    222e:	fedff2ef          	jal	x5,221a <sub_1_30+0x12>
15:               c.j          20f
    2232:	a039                	c.j	2240 <sub_1_30+0x38>
16:               c.j          22f
    2234:	a801                	c.j	2244 <sub_1_30+0x3c>
17:               jal          ra, 1b
    2236:	fdbff0ef          	jal	x1,2210 <sub_1_30+0x8>
18:               jal          t1, 13b
    223a:	ff3ff36f          	jal	x6,222c <sub_1_30+0x24>
19:               c.j          8b
    223e:	b7cd                	c.j	2220 <sub_1_30+0x18>
20:               c.j          18b
    2240:	bfed                	c.j	223a <sub_1_30+0x32>
21:               c.jal        3b
    2242:	3fc9                	c.jal	2214 <sub_1_30+0xc>
22:               c.j          11b
    2244:	b7cd                	c.j	2226 <sub_1_30+0x1e>
23:               c.j          28f
    2246:	a031                	c.j	2252 <sub_1_30+0x4a>
24:               jal          ra, 25f
    2248:	004000ef          	jal	x1,224c <sub_1_30+0x44>
25:               c.j          17b
    224c:	b7ed                	c.j	2236 <sub_1_30+0x2e>
26:               c.j          6b
    224e:	b7f9                	c.j	221c <sub_1_30+0x14>
27:               c.j          0b
    2250:	bf75                	c.j	220c <sub_1_30+0x4>
28:               srl          ra, s7, t0
    2252:	005bd0b3          	srl	x1,x23,x5
                  csrrs        t6, 0x340, zero #start corev_zcmp_pushpop_base_stream_10
    2256:	34002ff3          	csrrs	x31,mscratch,x0
                  xnor         s5, s10, t1
    225a:	406d4ab3          	xnor	x21,x26,x6
                  cm.push      {ra, s0-s1}, -64 #start zcmp push pop instr sequence
    225e:	b86e                	cm.push	{x1,x8-x9},-64
                  cpop         s1, a5
    2260:	60279493          	cpop	x9,x15
                  bset         s3, t1, s7
    2264:	297319b3          	bset	x19,x6,x23
                  c.zext.h     a4
    2268:	9f69                	c.zext.h	x14
                  sh1add       s5, s10, ra
    226a:	201d2ab3          	sh1add	x21,x26,x1
                  binvi        a6, s2, 27
    226e:	69b91813          	binvi	x16,x18,0x1b
                  auipc        s2, 915739
    2272:	df91b917          	auipc	x18,0xdf91b
                  xori         s5, t3, -2033
    2276:	80fe4a93          	xori	x21,x28,-2033
                  c.sub        a5, a4
    227a:	8f99                	c.sub	x15,x14
                  bexti        t2, sp, 7
    227c:	48715393          	bexti	x7,x2,0x7
                  sext.b       s2, a7
    2280:	60489913          	sext.b	x18,x17
                  orc.b        t3, t0
    2284:	2872de13          	orc.b	x28,x5
                  lui          a4, 122909
    2288:	1e01d737          	lui	x14,0x1e01d
                  auipc        t6, 445098
    228c:	6caaaf97          	auipc	x31,0x6caaa
                  rol          a4, t4, sp
    2290:	602e9733          	rol	x14,x29,x2
                  cm.pop       {ra, s0-s1}, 64 #end corev_zcmp_pushpop_base_stream_10
    2294:	ba6e                	cm.pop	{x1,x8-x9},64
                  c.li         t2, 11 #start corev_zcmp_pushpop_base_stream_0
    2296:	43ad                	c.li	x7,11
                  csrrw        a3, 0x340, s4
    2298:	340a16f3          	csrrw	x13,mscratch,x20
                  cm.push      {ra, s0-s8}, -96 #start zcmp push pop instr sequence
    229c:	b8de                	cm.push	{x1,x8-x9,x18-x24},-96
                  cm.pop       {ra, s0-s8}, 96 #end corev_zcmp_pushpop_base_stream_0
    229e:	bade                	cm.pop	{x1,x8-x9,x18-x24},96

000022a0 <sub_1_40>:
sub_1_40:         jal          ra, 12f
    22a0:	024000ef          	jal	x1,22c4 <sub_1_40+0x24>
0:                c.jal        2f
    22a4:	2011                	c.jal	22a8 <sub_1_40+0x8>
1:                c.jal        25f
    22a6:	283d                	c.jal	22e4 <sub_1_40+0x44>
2:                c.j          3f
    22a8:	a009                	c.j	22aa <sub_1_40+0xa>
3:                c.jal        21f
    22aa:	2805                	c.jal	22da <sub_1_40+0x3a>
4:                c.jal        19f
    22ac:	2025                	c.jal	22d4 <sub_1_40+0x34>
5:                jal          a3, 7f
    22ae:	006006ef          	jal	x13,22b4 <sub_1_40+0x14>
6:                c.j          1b
    22b2:	bfd5                	c.j	22a6 <sub_1_40+0x6>
7:                jal          ra, 8f
    22b4:	004000ef          	jal	x1,22b8 <sub_1_40+0x18>
8:                c.jal        9f
    22b8:	2009                	c.jal	22ba <sub_1_40+0x1a>
9:                c.jal        16f
    22ba:	2809                	c.jal	22cc <sub_1_40+0x2c>
10:               jal          ra, 13f
    22bc:	00a000ef          	jal	x1,22c6 <sub_1_40+0x26>
11:               jal          ra, 20f
    22c0:	018000ef          	jal	x1,22d8 <sub_1_40+0x38>
12:               c.jal        5b
    22c4:	37ed                	c.jal	22ae <sub_1_40+0xe>
13:               c.jal        11b
    22c6:	3fed                	c.jal	22c0 <sub_1_40+0x20>
14:               c.jal        18f
    22c8:	2029                	c.jal	22d2 <sub_1_40+0x32>
15:               c.j          24f
    22ca:	a821                	c.j	22e2 <sub_1_40+0x42>
16:               jal          ra, 10b
    22cc:	ff1ff0ef          	jal	x1,22bc <sub_1_40+0x1c>
17:               c.jal        0b
    22d0:	3fd1                	c.jal	22a4 <sub_1_40+0x4>
18:               c.j          23f
    22d2:	a031                	c.j	22de <sub_1_40+0x3e>
19:               jal          ra, 6b
    22d4:	fdfff0ef          	jal	x1,22b2 <sub_1_40+0x12>
20:               c.jal        14b
    22d8:	3fc5                	c.jal	22c8 <sub_1_40+0x28>
21:               c.j          15b
    22da:	bfc5                	c.j	22ca <sub_1_40+0x2a>
22:               c.j          4b
    22dc:	bfc1                	c.j	22ac <sub_1_40+0xc>
23:               jal          s11, 17b
    22de:	ff3ffdef          	jal	x27,22d0 <sub_1_40+0x30>
24:               c.jal        22b
    22e2:	3fed                	c.jal	22dc <sub_1_40+0x3c>
25:               c.mul        a0, a2
    22e4:	9d51                	c.mul	x10,x12

000022e6 <sub_1_41>:
sub_1_41:         jal          ra, 12f
    22e6:	024000ef          	jal	x1,230a <sub_1_41+0x24>
0:                c.jal        11f
    22ea:	2831                	c.jal	2306 <sub_1_41+0x20>
1:                c.j          7f
    22ec:	a801                	c.j	22fc <sub_1_41+0x16>
2:                c.j          14f
    22ee:	a005                	c.j	230e <sub_1_41+0x28>
3:                c.j          8f
    22f0:	a039                	c.j	22fe <sub_1_41+0x18>
4:                jal          t1, 2b
    22f2:	ffdff36f          	jal	x6,22ee <sub_1_41+0x8>
5:                c.jal        10f
    22f6:	2039                	c.jal	2304 <sub_1_41+0x1e>
6:                jal          ra, 4b
    22f8:	ffbff0ef          	jal	x1,22f2 <sub_1_41+0xc>
7:                c.jal        16f
    22fc:	2819                	c.jal	2312 <sub_1_41+0x2c>
8:                c.j          5b
    22fe:	bfe5                	c.j	22f6 <sub_1_41+0x10>
9:                jal          t3, 6b
    2300:	ff9ffe6f          	jal	x28,22f8 <sub_1_41+0x12>
10:               c.j          15f
    2304:	a031                	c.j	2310 <sub_1_41+0x2a>
11:               jal          t6, 1b
    2306:	fe7fffef          	jal	x31,22ec <sub_1_41+0x6>
12:               c.j          3b
    230a:	b7dd                	c.j	22f0 <sub_1_41+0xa>
13:               c.j          0b
    230c:	bff9                	c.j	22ea <sub_1_41+0x4>
14:               c.j          13b
    230e:	bffd                	c.j	230c <sub_1_41+0x26>
15:               c.jal        9b
    2310:	3fc5                	c.jal	2300 <sub_1_41+0x1a>
16:               min          s9, s6, t4
    2312:	0bdb4cb3          	min	x25,x22,x29

00002316 <sub_1_29>:
sub_1_29:         jal          ra, 1f
    2316:	006000ef          	jal	x1,231c <sub_1_29+0x6>
0:                c.j          13f
    231a:	a015                	c.j	233e <sub_1_29+0x28>
1:                c.j          21f
    231c:	a825                	c.j	2354 <sub_1_29+0x3e>
2:                jal          ra, 19f
    231e:	032000ef          	jal	x1,2350 <sub_1_29+0x3a>
3:                jal          ra, 0b
    2322:	ff9ff0ef          	jal	x1,231a <sub_1_29+0x4>
4:                c.j          17f
    2326:	a015                	c.j	234a <sub_1_29+0x34>
5:                jal          ra, 4b
    2328:	fffff0ef          	jal	x1,2326 <sub_1_29+0x10>
6:                c.j          7f
    232c:	a009                	c.j	232e <sub_1_29+0x18>
7:                c.jal        5b
    232e:	3fed                	c.jal	2328 <sub_1_29+0x12>
8:                c.j          20f
    2330:	a00d                	c.j	2352 <sub_1_29+0x3c>
9:                jal          a1, 10f
    2332:	004005ef          	jal	x11,2336 <sub_1_29+0x20>
10:               c.jal        8b
    2336:	3fed                	c.jal	2330 <sub_1_29+0x1a>
11:               jal          t1, 9b
    2338:	ffbff36f          	jal	x6,2332 <sub_1_29+0x1c>
12:               c.j          24f
    233c:	a005                	c.j	235c <sub_1_29+0x46>
13:               jal          ra, 11b
    233e:	ffbff0ef          	jal	x1,2338 <sub_1_29+0x22>
14:               c.j          22f
    2342:	a811                	c.j	2356 <sub_1_29+0x40>
15:               c.j          23f
    2344:	a811                	c.j	2358 <sub_1_29+0x42>
16:               jal          ra, 14b
    2346:	ffdff0ef          	jal	x1,2342 <sub_1_29+0x2c>
17:               jal          ra, 15b
    234a:	ffbff0ef          	jal	x1,2344 <sub_1_29+0x2e>
18:               c.j          16b
    234e:	bfe5                	c.j	2346 <sub_1_29+0x30>
19:               c.j          12b
    2350:	b7f5                	c.j	233c <sub_1_29+0x26>
20:               c.jal        2b
    2352:	37f1                	c.jal	231e <sub_1_29+0x8>
21:               c.j          6b
    2354:	bfe1                	c.j	232c <sub_1_29+0x16>
22:               c.jal        3b
    2356:	37f1                	c.jal	2322 <sub_1_29+0xc>
23:               jal          s7, 18b
    2358:	ff7ffbef          	jal	x23,234e <sub_1_29+0x38>
24:               sext.b       a4, s1
    235c:	60449713          	sext.b	x14,x9
                  c.sext.b     a0 #start corev_zcmp_pushpop_base_stream_13
    2360:	9d65                	c.sext.b	x10
                  bclr         s9, t4, a5
    2362:	48fe9cb3          	bclr	x25,x29,x15
                  cm.push      {ra, s0-s6}, -80 #start zcmp push pop instr sequence
    2366:	b8be                	cm.push	{x1,x8-x9,x18-x22},-80
                  csrrci       zero, 0x340, 18
    2368:	34097073          	csrrci	x0,mscratch,18
                  c.nop
    236c:	0001                	c.addi	x0,0
                  clz          s0, ra
    236e:	60009413          	clz	x8,x1
                  slti         t0, s11, -13
    2372:	ff3da293          	slti	x5,x27,-13
                  andn         t4, a2, s3
    2376:	41367eb3          	andn	x29,x12,x19
                  cm.pop       {ra, s0-s6}, 80 #end corev_zcmp_pushpop_base_stream_13
    237a:	babe                	cm.pop	{x1,x8-x9,x18-x22},80

0000237c <sub_1_32>:
sub_1_32:         jal          ra, 9f
    237c:	01c000ef          	jal	x1,2398 <sub_1_32+0x1c>
0:                c.j          7f
    2380:	a811                	c.j	2394 <sub_1_32+0x18>
1:                c.j          8f
    2382:	a811                	c.j	2396 <sub_1_32+0x1a>
2:                jal          ra, 13f
    2384:	01e000ef          	jal	x1,23a2 <sub_1_32+0x26>
3:                jal          ra, 1b
    2388:	ffbff0ef          	jal	x1,2382 <sub_1_32+0x6>
4:                c.j          12f
    238c:	a811                	c.j	23a0 <sub_1_32+0x24>
5:                jal          ra, 16f
    238e:	01a000ef          	jal	x1,23a8 <sub_1_32+0x2c>
6:                c.j          14f
    2392:	a809                	c.j	23a4 <sub_1_32+0x28>
7:                c.j          3b
    2394:	bfd5                	c.j	2388 <sub_1_32+0xc>
8:                c.j          15f
    2396:	a801                	c.j	23a6 <sub_1_32+0x2a>
9:                jal          ra, 0b
    2398:	fe9ff0ef          	jal	x1,2380 <sub_1_32+0x4>
10:               c.jal        2b
    239c:	37e5                	c.jal	2384 <sub_1_32+0x8>
11:               c.jal        18f
    239e:	2801                	c.jal	23ae <sub_1_32+0x32>
12:               c.j          5b
    23a0:	b7fd                	c.j	238e <sub_1_32+0x12>
13:               c.jal        17f
    23a2:	2029                	c.jal	23ac <sub_1_32+0x30>
14:               c.j          4b
    23a4:	b7e5                	c.j	238c <sub_1_32+0x10>
15:               c.jal        10b
    23a6:	3fdd                	c.jal	239c <sub_1_32+0x20>
16:               jal          a7, 19f
    23a8:	008008ef          	jal	x17,23b0 <sub_1_32+0x34>
17:               c.jal        11b
    23ac:	3fcd                	c.jal	239e <sub_1_32+0x22>
18:               c.j          6b
    23ae:	b7d5                	c.j	2392 <sub_1_32+0x16>
19:               c.nop
    23b0:	0001                	c.addi	x0,0

000023b2 <sub_1_34>:
sub_1_34:         jal          ra, 7f
    23b2:	014000ef          	jal	x1,23c6 <sub_1_34+0x14>
0:                c.j          3f
    23b6:	a019                	c.j	23bc <sub_1_34+0xa>
1:                c.jal        0b
    23b8:	3ffd                	c.jal	23b6 <sub_1_34+0x4>
2:                c.jal        15f
    23ba:	200d                	c.jal	23dc <sub_1_34+0x2a>
3:                c.jal        14f
    23bc:	2831                	c.jal	23d8 <sub_1_34+0x26>
4:                jal          ra, 21f
    23be:	02c000ef          	jal	x1,23ea <sub_1_34+0x38>
5:                c.jal        19f
    23c2:	200d                	c.jal	23e4 <sub_1_34+0x32>
6:                c.jal        20f
    23c4:	2015                	c.jal	23e8 <sub_1_34+0x36>
7:                c.jal        10f
    23c6:	2021                	c.jal	23ce <sub_1_34+0x1c>
8:                jal          t1, 11f
    23c8:	00a0036f          	jal	x6,23d2 <sub_1_34+0x20>
9:                c.j          17f
    23cc:	a811                	c.j	23e0 <sub_1_34+0x2e>
10:               jal          ra, 12f
    23ce:	006000ef          	jal	x1,23d4 <sub_1_34+0x22>
11:               c.jal        1b
    23d2:	37dd                	c.jal	23b8 <sub_1_34+0x6>
12:               c.jal        6b
    23d4:	3fc5                	c.jal	23c4 <sub_1_34+0x12>
13:               c.jal        2b
    23d6:	37d5                	c.jal	23ba <sub_1_34+0x8>
14:               jal          ra, 16f
    23d8:	006000ef          	jal	x1,23de <sub_1_34+0x2c>
15:               c.j          4b
    23dc:	b7cd                	c.j	23be <sub_1_34+0xc>
16:               c.j          18f
    23de:	a011                	c.j	23e2 <sub_1_34+0x30>
17:               c.jal        8b
    23e0:	37e5                	c.jal	23c8 <sub_1_34+0x16>
18:               c.jal        5b
    23e2:	37c5                	c.jal	23c2 <sub_1_34+0x10>
19:               jal          t1, 13b
    23e4:	ff3ff36f          	jal	x6,23d6 <sub_1_34+0x24>
20:               c.j          9b
    23e8:	b7d5                	c.j	23cc <sub_1_34+0x1a>
21:               clmulh       gp, s5, s2
    23ea:	0b2ab1b3          	clmulh	x3,x21,x18

000023ee <sub_1_43>:
sub_1_43:         jal          ra, 14f
    23ee:	02a000ef          	jal	x1,2418 <sub_1_43+0x2a>
0:                c.jal        9f
    23f2:	2829                	c.jal	240c <sub_1_43+0x1e>
1:                jal          gp, 8f
    23f4:	016001ef          	jal	x3,240a <sub_1_43+0x1c>
2:                c.jal        10f
    23f8:	2819                	c.jal	240e <sub_1_43+0x20>
3:                jal          tp, 5f
    23fa:	0080026f          	jal	x4,2402 <sub_1_43+0x14>
4:                jal          t5, 13f
    23fe:	01800f6f          	jal	x30,2416 <sub_1_43+0x28>
5:                c.j          2b
    2402:	bfdd                	c.j	23f8 <sub_1_43+0xa>
6:                jal          ra, 12f
    2404:	010000ef          	jal	x1,2414 <sub_1_43+0x26>
7:                c.j          6b
    2408:	bff5                	c.j	2404 <sub_1_43+0x16>
8:                c.j          0b
    240a:	b7e5                	c.j	23f2 <sub_1_43+0x4>
9:                c.jal        4b
    240c:	3fcd                	c.jal	23fe <sub_1_43+0x10>
10:               c.j          1b
    240e:	b7dd                	c.j	23f4 <sub_1_43+0x6>
11:               jal          a7, 15f
    2410:	00a008ef          	jal	x17,241a <sub_1_43+0x2c>
12:               c.jal        16f
    2414:	2021                	c.jal	241c <sub_1_43+0x2e>
13:               c.j          17f
    2416:	a021                	c.j	241e <sub_1_43+0x30>
14:               c.jal        11b
